(dp1
S'Lactobacillus delbrueckii subsp. bulgaricus ATCC BAA-365'
p2
S'ACCTCCTTT'
p3
sS'Cytophaga hutchinsonii ATCC 33406'
p4
S'ACCTCCTTT'
p5
sS'Prochlorococcus marinus str. NATL1A'
p6
S'ACCTCCTAA'
p7
sS'Candidatus Desulforudis audaxviator MP104C'
p8
S'ACCTCCTTT'
p9
sS'Streptococcus pneumoniae ATCC 700669'
p10
S'ACCTCCTTT'
p11
sS'Pelodictyon phaeoclathratiforme BU-1'
p12
S'ACCTCCTTT'
p13
sS'Pantoea ananatis LMG 20103'
p14
S'ACCTCCTTA'
p15
sS'Zunongwangia profunda SM-A87'
p16
S'ACCTCCTTT'
p17
sS'Candidatus Puniceispirillum marinum IMCC1322'
p18
S'ACCTCCTTT'
p19
sS'Deinococcus radiodurans R1'
p20
S'ACCTCCTTT'
p21
sS'Arthrobacter aurescens TC1'
p22
S'ACCTCCTTT'
p23
sS'Chlorobium phaeobacteroides DSM 266'
p24
S'CACCTCCTT'
p25
sS'Roseiflexus castenholzii DSM 13941'
p26
S'ACCTCCTTT'
p27
sS'Chlamydophila pneumoniae J138'
p28
S'ACCTCCTTT'
p29
sS'Legionella pneumophila 2300/99 Alcoy'
p30
S'ACCTCCTTA'
p31
sS'Anaplasma centrale str. Israel'
p32
S'TAGCTGTAG'
p33
sS'Pseudomonas syringae pv. tomato str. DC3000'
p34
S'ACCTCCTTA'
p35
sS'Geobacillus sp. Y412MC10'
p36
S'ACCTCCTTT'
p37
sS'Shewanella sp. W3-18-1'
p38
S'ACCTCCTTA'
p39
sS'Chlamydophila pneumoniae TW-183'
p40
S'ACCTCCTTT'
p41
sS'Agrobacterium radiobacter K84'
p42
S'ACCTCCTTT'
p43
sS'Staphylococcus aureus subsp. aureus str. Newman'
p44
S'ACCTCCTTT'
p45
sS'Corynebacterium efficiens YS-314'
p46
S'ACCTCCTTT'
p47
sS'Staphylococcus epidermidis ATCC 12228'
p48
S'ACCTCCTTT'
p49
sS'Arcobacter nitrofigilis DSM 7299'
p50
S'ACCTCCTTT'
p51
sS'Vibrio vulnificus CMCP6'
p52
S'ACCTCCTTA'
p53
sS'Laribacter hongkongensis HLHK9'
p54
S'ACCTCCTTT'
p55
sS'Mycoplasma mobile 163K'
p56
S'ACCTCCTTT'
p57
sS'Beutenbergia cavernae DSM 12333'
p58
S'ACCTCCTTT'
p59
sS'Candidatus Amoebophilus asiaticus 5a2'
p60
S'ACCTCCTTT'
p61
sS'Staphylococcus aureus subsp. aureus MRSA252'
p62
S'ACCTCCTTT'
p63
sS'Clostridium perfringens str. 13'
p64
S'ACCTCCTTT'
p65
sS'Macrococcus caseolyticus JCSC5402'
p66
S'ACCTCCTTT'
p67
sS'Burkholderia mallei NCTC 10229'
p68
S'ACCTCCTTT'
p69
sS'Frankia sp. CcI3'
p70
S'ACCTCCTTT'
p71
sS'Herpetosiphon aurantiacus ATCC 23779'
p72
S'ACCTCCTTT'
p73
sS'Methanocaldococcus infernus ME'
p74
S'ACCTCCCGA'
p75
sS'Rickettsia akari str. Hartford'
p76
S'ACCTCCTTA'
p77
sS'Escherichia coli BL21(DE3)'
p78
S'TAACCGTAG'
p79
sS'Rickettsia massiliae MTU5'
p80
S'ACCTCCTTA'
p81
sS'Actinobacillus succinogenes 130Z'
p82
S'ACCTCCTTA'
p83
sS'Leifsonia xyli subsp. xyli str. CTCB07'
p84
S'ACCTCCTTT'
p85
sS'Rhodococcus opacus B4'
p86
S'ACCTCCTTT'
p87
sS'Natranaerobius thermophilus JW/NM-WN-LF'
p88
S'ACCTCCTTT'
p89
sS'Lactococcus lactis subsp. lactis KF147'
p90
S'ACCTCCTTT'
p91
sS'Thermotoga lettingae TMO'
p92
S'ACCTCCTTT'
p93
sS'Alkaliphilus metalliredigens QYMF'
p94
S'ACCTCCTTT'
p95
sS'Sinorhizobium meliloti 1021'
p96
S'ACCTCCTTT'
p97
sS'Leptospira interrogans serovar Lai str. 56601'
p98
S'ACCTCCTTT'
p99
sS'Synechococcus sp. CC9311'
p100
S'ACCTCCTAA'
p101
sS'Methanococcus voltae A3'
p102
S'ACCTCCTAG'
p103
sS'Cyanothece sp. ATCC 51142'
p104
S'ACCTCCTTA'
p105
sS'Streptococcus sanguinis SK36'
p106
S'ACCTCCTTT'
p107
sS'Thiomicrospira crunogena XCL-2'
p108
S'ACCTCCTTT'
p109
sS'Idiomarina loihiensis L2TR'
p110
S'ACCTCCTTA'
p111
sS'Salmonella enterica subsp. enterica serovar Paratyphi B str. SPB7'
p112
S'GCGTTAATC'
p113
sS'Mycobacterium leprae TN'
p114
S'ACCTCCTTT'
p115
sS'Staphylococcus aureus subsp. aureus Mu50'
p116
S'ACCTCCTTT'
p117
sS'Bifidobacterium longum subsp. longum JDM301'
p118
S'ACCTCCTTT'
p119
sS'Haemophilus influenzae PittGG'
p120
S'AGTCGTAAC'
p121
sS'Sinorhizobium medicae WSM419'
p122
S'ACCTCCTTT'
p123
sS'Carboxydothermus hydrogenoformans Z-2901'
p124
S'CGAAGGTGG'
p125
sS'Acinetobacter baumannii AYE'
p126
S'ACCTCCTTA'
p127
sS'Desulfatibacillum alkenivorans AK-01'
p128
S'ACCTCCTTT'
p129
sS'Treponema pallidum subsp. pallidum SS14'
p130
S'ACCTCCTTT'
p131
sS'Methanocaldococcus vulcanius M7'
p132
S'ACCTCCTGA'
p133
sS'Haemophilus influenzae 86-028NP'
p134
S'AGTCGTAAC'
p135
sS'Aeropyrum pernix K1'
p136
S'ACCTCCCGA'
p137
sS'Flavobacteriaceae bacterium 3519-10'
p138
S'ATCTCATTT'
p139
sS'Halorhabdus utahensis DSM 12940'
p140
S'ACCTCCTAA'
p141
sS'Burkholderia thailandensis E264'
p142
S'ACCTCCTTT'
p143
sS'Shigella flexneri 2a str. 301'
p144
S'ACCTCCTTA'
p145
sS'Mycobacterium gilvum PYR-GCK'
p146
S'ACCTCCTTT'
p147
sS'Orientia tsutsugamushi str. Ikeda'
p148
S'ACCTCCTTT'
p149
sS'Lactobacillus casei ATCC 334'
p150
S'ACCTCCTTT'
p151
sS'Metallosphaera sedula DSM 5348'
p152
S'TAACAAGGT'
p153
sS'Rhodopseudomonas palustris BisA53'
p154
S'ACCTCCTTT'
p155
sS'Streptococcus pyogenes str. Manfredo'
p156
S'ACCTCCTTT'
p157
sS'Lactobacillus fermentum IFO 3956'
p158
S'ACCTCCTTT'
p159
sS'Lactobacillus rhamnosus Lc 705'
p160
S'ACCTCCTTT'
p161
sS'Acidithiobacillus ferrooxidans ATCC 53993'
p162
S'ACCTCCTTT'
p163
sS'Yersinia pseudotuberculosis IP 31758'
p164
S'ACCTCCTTA'
p165
sS'Candidatus Phytoplasma australiense'
p166
S'ACCTCCTTT'
p167
sS'Sulfolobus islandicus M.16.27'
p168
S'ACCTCATAG'
p169
sS'Legionella pneumophila str. Lens'
p170
S'ACCTCCTTA'
p171
sS'Cupriavidus metallidurans CH34'
p172
S'AGTCGTAAC'
p173
sS'Methylobacterium chloromethanicum CM4'
p174
S'ACCTCCTTT'
p175
sS'Anaeromyxobacter sp. Fw109-5'
p176
S'ACCTCCTTT'
p177
sS'Rhodopseudomonas palustris HaA2'
p178
S'ACCTCCTTT'
p179
sS'Rhizobium sp. NGR234'
p180
S'ACCTCCTTT'
p181
sS'Brucella abortus S19'
p182
S'ACCTCCTTT'
p183
sS'Waddlia chondrophila WSU 86-1044'
p184
S'ACCTCCTTT'
p185
sS'Acholeplasma laidlawii PG-8A'
p186
S'ACCTCCTTT'
p187
sS'Escherichia coli BW2952'
p188
S'ACCTCCTTA'
p189
sS'Methanosphaerula palustris E1-9c'
p190
S'ACCTCCTAA'
p191
sS'Polaromonas sp. JS666'
p192
S'ACCTCCTTT'
p193
sS'Sulfolobus acidocaldarius DSM 639'
p194
S'ACCTCATAT'
p195
sS'Escherichia coli E24377A'
p196
S'ACCTCCTTA'
p197
sS'Shewanella pealeana ATCC 700345'
p198
S'ACCTCCTTA'
p199
sS'Prochlorococcus marinus str. MIT 9312'
p200
S'ACCTCCTAA'
p201
sS'Caulobacter crescentus NA1000'
p202
S'ACCTCCTTT'
p203
sS'Sideroxydans lithotrophicus ES-1'
p204
S'ACCTCCTTT'
p205
sS'Thioalkalivibrio sp. K90mix'
p206
S'ACCTCCTTT'
p207
sS'Escherichia coli str. K-12 substr. DH10B'
p208
S'ACCTCCTTA'
p209
sS'Pseudomonas putida KT2440'
p210
S'ACCTCCTTA'
p211
sS'Xanthomonas oryzae pv. oryzae MAFF 311018'
p212
S'ACCTCCTTT'
p213
sS'Capnocytophaga ochracea DSM 7271'
p214
S'ACCTCCTTT'
p215
sS'Streptobacillus moniliformis DSM 12112'
p216
S'ACCTCCTTT'
p217
sS'Cellulomonas flavigena DSM 20109'
p218
S'ACCTCCTTT'
p219
sS'Anaerococcus prevotii DSM 20548'
p220
S'ACCTCCTTT'
p221
sS'Shigella flexneri 2a str. 2457T'
p222
S'ACCTCCTTA'
p223
sS'Variovorax paradoxus S110'
p224
S'ACCTCCTTT'
p225
sS'Lysinibacillus sphaericus C3-41'
p226
S'ACCTCCTTT'
p227
sS'Bdellovibrio bacteriovorus HD100'
p228
S'ACCTCCTTT'
p229
sS'Shewanella baltica OS223'
p230
S'ACCTCCTTA'
p231
sS'Buchnera aphidicola str. Tuc7 (Acyrthosiphon pisum)'
p232
S'ACCTCCTTA'
p233
sS'Mannheimia succiniciproducens MBEL55E'
p234
S'ACCTCCTTA'
p235
sS'Hydrogenobacter thermophilus TK-6'
p236
S'CGTGGGGGA'
p237
sS'Starkeya novella DSM 506'
p238
S'ACCTCCTTT'
p239
sS'Mycobacterium sp. JLS'
p240
S'ACCTCCTTT'
p241
sS'Rhodopseudomonas palustris CGA009'
p242
S'ACCTCCTTT'
p243
sS'Geobacter lovleyi SZ'
p244
S'ACCTCCTTT'
p245
sS'Streptococcus agalactiae NEM316'
p246
S'ACCTCCTTT'
p247
sS'Bifidobacterium dentium Bd1'
p248
S'ACCTCCTTT'
p249
sS'Campylobacter jejuni subsp. jejuni 81-176'
p250
S'ACCTCCTTT'
p251
sS'Campylobacter jejuni RM1221'
p252
S'ACCTCCTTT'
p253
sS'Pseudomonas putida F1'
p254
S'ACCTCCTTA'
p255
sS'Roseobacter denitrificans OCh 114'
p256
S'ACCTCCTTT'
p257
sS'Desulfococcus oleovorans Hxd3'
p258
S'ACCTCCTTT'
p259
sS'Bacteroides vulgatus ATCC 8482'
p260
S'ACCTCCTTT'
p261
sS'Burkholderia cenocepacia MC0-3'
p262
S'AGTCGTAAC'
p263
sS'Agrobacterium vitis S4'
p264
S'ACCTCCTTT'
p265
sS'Pseudomonas syringae pv. phaseolicola 1448A'
p266
S'ACCTCCTTA'
p267
sS'Halothiobacillus neapolitanus c2'
p268
S'ACCTCCTTT'
p269
sS'Listeria innocua Clip11262'
p270
S'ACCTCCTTT'
p271
sS'Chlamydophila caviae GPIC'
p272
S'ACCTCCTTT'
p273
sS'Lactobacillus brevis ATCC 367'
p274
S'ACCTCCTTT'
p275
sS'Oceanobacillus iheyensis HTE831'
p276
S'ACCTCCTTT'
p277
sS'Escherichia coli APEC O1'
p278
S'ACCTCCTTA'
p279
sS'Streptococcus suis BM407'
p280
S'ACCTCCTTT'
p281
sS'Burkholderia sp. CCGE1002'
p282
S'AGTCGTAAC'
p283
sS'Mycobacterium smegmatis str. MC2 155'
p284
S'ACCTCCTTT'
p285
sS'Rhodospirillum rubrum ATCC 11170'
p286
S'ACCTCCTTT'
p287
sS'Natrialba magadii ATCC 43099'
p288
S'ACCTCCACA'
p289
sS'Mycobacterium tuberculosis F11'
p290
S'ACCTCCTTT'
p291
sS'Bacillus cereus 03BB102'
p292
S'ACCTCCTTT'
p293
sS'Rhodobacter sphaeroides KD131'
p294
S'ACCTCCTTT'
p295
sS'Desulfitobacterium hafniense Y51'
p296
S'ACCTCCTTT'
p297
sS'Candidatus Riesia pediculicola USDA'
p298
S'ACCTCCTTA'
p299
sS'Symbiobacterium thermophilum IAM 14863'
p300
S'TAGGTCGAT'
p301
sS'Arthrobacter chlorophenolicus A6'
p302
S'ACCTCCTTT'
p303
sS'Rhodospirillum centenum SW'
p304
S'ACCTCCTTT'
p305
sS'Actinobacillus pleuropneumoniae L20'
p306
S'ACCTCCTTA'
p307
sS'Actinobacillus pleuropneumoniae serovar 3 str. JL03'
p308
S'ACCTCCTTA'
p309
sS'Streptococcus gordonii str. Challis substr. CH1'
p310
S'ACCTCCTTT'
p311
sS'Escherichia coli O157:H7 str. EC4115'
p312
S'ACCTCCTTA'
p313
sS'Deinococcus geothermalis DSM 11300'
p314
S'ACCTCCTTT'
p315
sS'Pseudoalteromonas atlantica T6c'
p316
S'GGTAACCCT'
p317
sS'Xylella fastidiosa 9a5c'
p318
S'ACCTCCTTT'
p319
sS'Brachyspira hyodysenteriae WA1'
p320
S'ACCTCCTTT'
p321
sS'Frankia sp. EAN1pec'
p322
S'ACCTCCTTT'
p323
sS'Synechocystis sp. PCC 6803'
p324
S'ACCTCCTTT'
p325
sS'Comamonas testosteroni CNB-2'
p326
S'ACCTCCTTT'
p327
sS'Novosphingobium aromaticivorans DSM 12444'
p328
S'ACCTCCTTT'
p329
sS'Escherichia coli O157:H7 str. Sakai'
p330
S'ACCTCCTTA'
p331
sS'Geobacillus thermodenitrificans NG80-2'
p332
S'ACCTCCTTT'
p333
sS'Clostridium botulinum A str. ATCC 19397'
p334
S'ACCTCCTTT'
p335
sS'Halorubrum lacusprofundi ATCC 49239'
p336
S'ACCTCCACC'
p337
sS'Methanospirillum hungatei JF-1'
p338
S'ACCTCCTAA'
p339
sS'Mycobacterium avium subsp. paratuberculosis K-10'
p340
S'ACCTCCTTT'
p341
sS'Yersinia pestis Pestoides F'
p342
S'ACCTCCTTA'
p343
sS'Haloquadratum walsbyi DSM 16790'
p344
S'ACCTCCTAA'
p345
sS'Methanococcus vannielii SB'
p346
S'ACCTCCTAA'
p347
sS'Geobacter metallireducens GS-15'
p348
S'GTTCTCTGA'
p349
sS'Xenorhabdus bovienii SS-2004'
p350
S'ACCTCCTTA'
p351
sS'Thermus thermophilus HB8'
p352
S'ACCTCCTTT'
p353
sS'Magnetospirillum magneticum AMB-1'
p354
S'ACCTCCTTT'
p355
sS'Clostridium novyi NT'
p356
S'ACCTCCTTT'
p357
sS'Thermincola sp. JR'
p358
S'ACCTCCTTT'
p359
sS'Kribbella flavida DSM 17836'
p360
S'ACCTCCTTT'
p361
sS'Acidobacterium capsulatum ATCC 51196'
p362
S'ACCTCCTTT'
p363
sS'Escherichia coli ED1a'
p364
S'ACCTCCTTA'
p365
sS'Streptococcus pyogenes MGAS10270'
p366
S'TATATAATA'
p367
sS'Helicobacter pylori J99'
p368
S'ACCTCCTTT'
p369
sS'Burkholderia ambifaria MC40-6'
p370
S'AGTCGTAAC'
p371
sS'Bacteroides fragilis YCH46'
p372
S'ACCTCCTTT'
p373
sS'Desulfotalea psychrophila LSv54'
p374
S'ACCTCCTTT'
p375
sS'Yersinia enterocolitica subsp. enterocolitica 8081'
p376
S'ACCTCCTTA'
p377
sS'Synechococcus elongatus PCC 6301'
p378
S'ACCTCCTTT'
p379
sS'Mycoplasma arthritidis 158L3-1'
p380
S'CCGAACCGT'
p381
sS'Streptococcus pneumoniae CGSP14'
p382
S'ACCTCCTTT'
p383
sS'Escherichia coli str. K-12 substr. MG1655'
p384
S'ACCTCCTTA'
p385
sS'Shewanella woodyi ATCC 51908'
p386
S'ACCTCCTTA'
p387
sS'Mycoplasma hominis'
p388
S'ACCTCCTTT'
p389
sS'Coxiella burnetii CbuG_Q212'
p390
S'ACCTCCTTA'
p391
sS'Shigella dysenteriae Sd197'
p392
S'ACCTCCTTA'
p393
sS'Frankia alni ACN14a'
p394
S'ACCTCCTTT'
p395
sS'Yersinia pestis Z176003'
p396
S'ACCTCCTTA'
p397
sS'Natronomonas pharaonis DSM 2160'
p398
S'ACCTCCTAA'
p399
sS'Erwinia pyrifoliae Ep1/96'
p400
S'ACCTCCTTA'
p401
sS'Clostridium botulinum B1 str. Okra'
p402
S'ACCTCCTTT'
p403
sS'Streptomyces avermitilis MA-4680'
p404
S'ACCTCCTTT'
p405
sS'Opitutus terrae PB90-1'
p406
S'ACCTCCTTT'
p407
sS'Herminiimonas arsenicoxydans'
p408
S'ACCTCCTTT'
p409
sS'Segniliparus rotundus DSM 44985'
p410
S'ACCTCCTTT'
p411
sS'Mycoplasma synoviae 53'
p412
S'ACCTCCTTT'
p413
sS'Pyrococcus abyssi GE5'
p414
S'ACCTCCTAT'
p415
sS'Psychrobacter arcticus 273-4'
p416
S'ACCTCCTTA'
p417
sS'Cryptobacterium curtum DSM 15641'
p418
S'ACCTCCTTT'
p419
sS'Borrelia recurrentis A1'
p420
S'ACCTCCTTT'
p421
sS'Neisseria meningitidis FAM18'
p422
S'ACCTCCTTT'
p423
sS'Staphylococcus aureus subsp. aureus USA300_FPR3757'
p424
S'ACCTCCTTT'
p425
sS'Sulfolobus tokodaii str. 7'
p426
S'ACCTCACAT'
p427
sS'Streptococcus suis 05ZYH33'
p428
S'ACCTCCTTT'
p429
sS'Paenibacillus sp. JDR-2'
p430
S'ACCTCCTTT'
p431
sS'Methanosarcina mazei Go1'
p432
S'ACCTCCTAA'
p433
sS'Burkholderia phytofirmans PsJN'
p434
S'ACCTCCTTT'
p435
sS'Jannaschia sp. CCS1'
p436
S'ACCTCCTTT'
p437
sS'Streptococcus pneumoniae TCH8431/19A'
p438
S'ACCTCCTTT'
p439
sS'Acinetobacter baumannii ACICU'
p440
S'ACCTCCTTA'
p441
sS'Methanohalobium evestigatum Z-7303'
p442
S'ACCTCCTAA'
p443
sS'Streptococcus mutans NN2025'
p444
S'ACCTCCTTT'
p445
sS'Streptococcus thermophilus LMD-9'
p446
S'ACCTCCTTT'
p447
sS'Mycobacterium tuberculosis CDC1551'
p448
S'ACCTCCTTT'
p449
sS'Shewanella loihica PV-4'
p450
S'ACCTCCTTA'
p451
sS'Escherichia coli IAI1'
p452
S'ACCTCCTTA'
p453
sS'Escherichia coli O111:H- str. 11128'
p454
S'ACCTCCTTA'
p455
sS"Desulfovibrio vulgaris str. 'Miyazaki F'"
p456
S'ACCTCCTTT'
p457
sS'Haloarcula marismortui ATCC 43049'
p458
S'ACCTCCTAC'
p459
sS'Cronobacter turicensis z3032'
p460
S'ACCTCCTTA'
p461
sS'Clostridium difficile 630'
p462
S'ACCTCCTTT'
p463
sS'Thiobacillus denitrificans ATCC 25259'
p464
S'ACCTCCTTT'
p465
sS'Caulobacter segnis ATCC 21756'
p466
S'ACCTCCTTT'
p467
sS'Shewanella violacea DSS12'
p468
S'ACCTCCTTA'
p469
sS'Chlorobium chlorochromatii CaD3'
p470
S'ACCTCCTTT'
p471
sS'Rickettsia felis URRWXCal2'
p472
S'ACCTCCTTA'
p473
sS'Nocardioides sp. JS614'
p474
S'ACCTCCTTT'
p475
sS'Corynebacterium glutamicum R'
p476
S'ACCTCCTTT'
p477
sS'Bacillus cereus E33L'
p478
S'ACCTCCTTT'
p479
sS'Buchnera aphidicola str. Cc (Cinara cedri)'
p480
S'ACCTCCTTA'
p481
sS'Staphylococcus aureus subsp. aureus MW2'
p482
S'ACCTCCTTT'
p483
sS'Xylella fastidiosa Temecula1'
p484
S'ACCTCCTTT'
p485
sS'Streptococcus pneumoniae JJA'
p486
S'ACCTCCTTT'
p487
sS'Prochlorococcus marinus str. MIT 9211'
p488
S'ACCTCCTAA'
p489
sS'Pelobacter propionicus DSM 2379'
p490
S'ACCTCCTTT'
p491
sS'Rhodoferax ferrireducens T118'
p492
S'ACCTCCTTT'
p493
sS'Escherichia coli O157:H7 EDL933'
p494
S'ACCTCCTTA'
p495
sS'Shigella boydii Sb227'
p496
S'ACCTCCTTA'
p497
sS'Clostridium kluyveri DSM 555'
p498
S'ACCTCCTTT'
p499
sS'Rickettsia peacockii str. Rustic'
p500
S'ACCTCCTTA'
p501
sS'Lactobacillus reuteri JCM 1112'
p502
S'ACCTCCTTT'
p503
sS'Alcanivorax borkumensis SK2'
p504
S'ACCTCCTTA'
p505
sS'Anaeromyxobacter dehalogenans 2CP-C'
p506
S'ACCTCCTTT'
p507
sS'Dictyoglomus thermophilum H-6-12'
p508
S'ACCTCCTTT'
p509
sS'Synechococcus sp. WH 8102'
p510
S'ACCTCCTAA'
p511
sS'Halomicrobium mukohataei DSM 12286'
p512
S'ACCTCCTAC'
p513
sS'Leuconostoc citreum KM20'
p514
S'ACCTCCTTT'
p515
sS'Hyphomonas neptunium ATCC 15444'
p516
S'ACCTCCTTT'
p517
sS'Streptococcus pyogenes MGAS5005'
p518
S'ACCTCCTTT'
p519
sS'Geobacillus sp. C56-T3'
p520
S'ACCTCCTTT'
p521
sS'Methanothermobacter thermautotrophicus str. Delta H'
p522
S'ACCTCCTTA'
p523
sS'Aliivibrio salmonicida LFI1238'
p524
S'ACCTCCTTA'
p525
sS'Anaeromyxobacter dehalogenans 2CP-1'
p526
S'ACCTCCTTT'
p527
sS'Acidimicrobium ferrooxidans DSM 10331'
p528
S'ACCTCCTTT'
p529
sS'Yersinia pseudotuberculosis YPIII'
p530
S'ACCTCCTTA'
p531
sS'Pseudomonas aeruginosa UCBPP-PA14'
p532
S'ACCTCCTTA'
p533
sS'Mycobacterium avium 104'
p534
S'ACCTCCTTT'
p535
sS'Burkholderia xenovorans LB400'
p536
S'AGTCGTAAC'
p537
sS'Methylobacillus flagellatus KT'
p538
S'ACCTCCTTT'
p539
sS'Rhodobacter capsulatus SB 1003'
p540
S'ACCTCCTTT'
p541
sS'Francisella tularensis subsp. tularensis FSC198'
p542
S'ACCTCCTTA'
p543
sS'Bacillus weihenstephanensis KBAB4'
p544
S'ACCTCCTTT'
p545
sS'Geobacillus sp. WCH70'
p546
S'ACCTCCTTT'
p547
sS'Bacteroides thetaiotaomicron VPI-5482'
p548
S'ACCTCCTTT'
p549
sS'Borrelia hermsii DAH'
p550
S'ACCTCCTTT'
p551
sS'Acinetobacter baumannii ATCC 17978'
p552
S'ACCTCCTTA'
p553
sS'Bartonella henselae str. Houston-1'
p554
S'ACCTCCTTT'
p555
sS'Shewanella denitrificans OS217'
p556
S'ACCTCCTTA'
p557
sS'Lawsonia intracellularis PHE/MN1-00'
p558
S'ACCTCCTTT'
p559
sS'Thermocrinis albus DSM 14484'
p560
S'ACCTCCTTT'
p561
sS'Streptococcus gallolyticus UCN34'
p562
S'ACCTCCTTT'
p563
sS'Haemophilus parasuis SH0165'
p564
S'ACCTCCTTA'
p565
sS'Desulfobacterium autotrophicum HRM2'
p566
S'ACCTCCTTT'
p567
sS'Enterobacter cloacae subsp. cloacae ATCC 13047'
p568
S'ACCTCCTTA'
p569
sS'Shewanella sediminis HAW-EB3'
p570
S'ACCTCCTTA'
p571
sS'Neisseria meningitidis Z2491'
p572
S'ACCTCCTTT'
p573
sS'Bartonella grahamii as4aup'
p574
S'ACCTCCTTT'
p575
sS'Rhodococcus erythropolis PR4'
p576
S'ACCTCCTTT'
p577
sS'Mycobacterium vanbaalenii PYR-1'
p578
S'ACCTCCTTT'
p579
sS'Nocardia farcinica IFM 10152'
p580
S'CCGTACCGG'
p581
sS'Clostridium perfringens SM101'
p582
S'ACCTCCTTT'
p583
sS'Lactobacillus helveticus DPC 4571'
p584
S'ACCTCCTTT'
p585
sS'Bifidobacterium longum subsp. infantis ATCC 15697'
p586
S'ACCTCCTTT'
p587
sS'Wolbachia endosymbiont of Drosophila melanogaster'
p588
S'AAAGTGGGA'
p589
sS'Corynebacterium diphtheriae NCTC 13129'
p590
S'ACCTCCTTT'
p591
sS'Candidatus Carsonella ruddii PV'
p592
S'ATTTTTAAA'
p593
sS'Sulfurimonas denitrificans DSM 1251'
p594
S'ACCTCCTTT'
p595
sS'Thermobaculum terrenum ATCC BAA-798'
p596
S'ACCTCCTTT'
p597
sS'Shewanella frigidimarina NCIMB 400'
p598
S'ACCTCCTTA'
p599
sS'Methylobacterium extorquens DM4'
p600
S'ACCTCCTTT'
p601
sS'Gemmatimonas aurantiaca T-27'
p602
S'ACCTCCTTT'
p603
sS'Bacillus amyloliquefaciens FZB42'
p604
S'ACCTCCTTT'
p605
sS'Candidatus Blochmannia pennsylvanicus str. BPEN'
p606
S'ACCTCCTTA'
p607
sS'Bifidobacterium longum DJO10A'
p608
S'ACCTCCTTT'
p609
sS'Yersinia pestis Nepal516'
p610
S'ACCTCCTTA'
p611
sS'Chitinophaga pinensis DSM 2588'
p612
S'ACCTCCTTT'
p613
sS'Mobiluncus curtisii ATCC 43063'
p614
S'ACCTCCTTT'
p615
sS'Rickettsia bellii RML369-C'
p616
S'ACCTCCTTA'
p617
sS'Escherichia coli O103:H2 str. 12009'
p618
S'ACCTCCTTA'
p619
sS'Pectobacterium wasabiae WPP163'
p620
S'ACCTCCTTA'
p621
sS'Yersinia pestis CO92'
p622
S'ACCTCCTTA'
p623
sS'Streptococcus suis P1/7'
p624
S'ACCTCCTTT'
p625
sS'Leuconostoc kimchii IMSNU11154'
p626
S'ACCTCCTTT'
p627
sS'Staphylococcus aureus subsp. aureus NCTC 8325'
p628
S'ACCTCCTTT'
p629
sS'Flavobacterium johnsoniae UW101'
p630
S'ACCTCCTTT'
p631
sS'Xylella fastidiosa M23'
p632
S'ACCTCCTTT'
p633
sS'Pelotomaculum thermopropionicum SI'
p634
S'CGAAGGTGG'
p635
sS'Brucella suis ATCC 23445'
p636
S'ACCTCCTTT'
p637
sS'Candidatus Protochlamydia amoebophila UWE25'
p638
S'ACCTCCTTT'
p639
sS'Burkholderia sp. 383'
p640
S'ACCTCCTTT'
p641
sS'Zymomonas mobilis subsp. mobilis ZM4'
p642
S'ACCTCCTTT'
p643
sS'Pyrobaculum aerophilum str. IM2'
p644
S'ACCTCCACC'
p645
sS'Bacillus tusciae DSM 2912'
p646
S'ACCTCCTTT'
p647
sS'Nautilia profundicola AmH'
p648
S'ACCTCCTTT'
p649
sS'Chlamydia trachomatis L2b/UCH-1/proctitis'
p650
S'ACCTCCTTT'
p651
sS'Dehalococcoides ethenogenes 195'
p652
S'ACCTCCTTT'
p653
sS'Streptococcus pneumoniae Taiwan19F-14'
p654
S'ACCTCCTTT'
p655
sS'Legionella pneumophila str. Paris'
p656
S'ACCTCCTTA'
p657
sS'Bacillus anthracis str. A0248'
p658
S'ACCTCCTTT'
p659
sS'Porphyromonas gingivalis W83'
p660
S'ACCTCCTTT'
p661
sS'Dechloromonas aromatica RCB'
p662
S'ACCTCCTTT'
p663
sS'Clostridium perfringens ATCC 13124'
p664
S'ACCTCCTTT'
p665
sS"Alteromonas macleodii 'Deep ecotype'"
p666
S'ACCTCCTTA'
p667
sS'Oenococcus oeni PSU-1'
p668
S'ACCTCCTTT'
p669
sS'Desulfovibrio vulgaris DP4'
p670
S'ACCTCCTTT'
p671
sS'Coxiella burnetii Dugway 5J108-111'
p672
S'ACCTCCTTA'
p673
sS'Escherichia coli O127:H6 str. E2348/69'
p674
S'ACCTCCTTA'
p675
sS'Bacillus megaterium DSM319'
p676
S'ACCTCCTTT'
p677
sS'Croceibacter atlanticus HTCC2559'
p678
S'ACCTCCTTT'
p679
sS'Mycobacterium tuberculosis KZN 1435'
p680
S'ACCTCCTTT'
p681
sS"Sorangium cellulosum 'So ce 56'"
p682
S'ACCTCCTTT'
p683
sS'Streptomyces scabiei 87.22'
p684
S'ACCTCCTTT'
p685
sS'Shigella boydii CDC 3083-94'
p686
S'ACCTCCTTA'
p687
sS'Nitrosopumilus maritimus SCM1'
p688
S'AAAAGTCGT'
p689
sS'Prochlorococcus marinus str. MIT 9215'
p690
S'ACCTCCTAA'
p691
sS'Ignicoccus hospitalis KIN4/I'
p692
S'ACCTCCCAA'
p693
sS'Buchnera aphidicola str. Bp (Baizongia pistaciae)'
p694
S'ACCTCCTTA'
p695
sS'Bacillus licheniformis ATCC 14580'
p696
S'ACCTCCTTT'
p697
sS'Kangiella koreensis DSM 16069'
p698
S'ACCTCCTTA'
p699
sS'Halorhodospira halophila SL1'
p700
S'ACCTCCTTT'
p701
sS'Synechococcus sp. PCC 7002'
p702
S'ACCTCCTTT'
p703
sS'Nitrosococcus halophilus Nc4'
p704
S'ACCTCCTTT'
p705
sS'Leptospira interrogans serovar Copenhageni str. Fiocruz L1-130'
p706
S'ACCTCCTTT'
p707
sS'Corynebacterium glutamicum ATCC 13032'
p708
S'ACCTCCTTT'
p709
sS'Sulfurihydrogenibium sp. YO3AOP1'
p710
S'ACCTCCTTT'
p711
sS'Chloroflexus sp. Y-400-fl'
p712
S'ACCTCCTTT'
p713
sS'Bacillus anthracis str. CDC 684'
p714
S'ACCTCCTTT'
p715
sS'Meiothermus ruber DSM 1279'
p716
S'ACCTCCTTT'
p717
sS'Syntrophothermus lipocalidus DSM 12680'
p718
S'ACCTCCTTT'
p719
sS'Rhodopseudomonas palustris TIE-1'
p720
S'ACCTCCTTT'
p721
sS'Acidiphilium cryptum JF-5'
p722
S'ACCTCCTTT'
p723
sS'Brevibacillus brevis NBRC 100599'
p724
S'ACCTCCTTT'
p725
sS'Xanthobacter autotrophicus Py2'
p726
S'ACCTCCTTT'
p727
sS'Salmonella enterica subsp. enterica serovar Typhi str. Ty2'
p728
S'ACCTCCTTA'
p729
sS'Pseudoalteromonas haloplanktis TAC125'
p730
S'ACCTCCTTA'
p731
sS'Streptococcus pyogenes MGAS315'
p732
S'ACCTCCTTT'
p733
sS'Vibrio fischeri ES114'
p734
S'ACCTCCTTA'
p735
sS'Campylobacter jejuni subsp. jejuni NCTC 11168'
p736
S'ACCTCCTTT'
p737
sS'Methanocaldococcus sp. FS406-22'
p738
S'ACCTCCTGA'
p739
sS'Cronobacter sakazakii ATCC BAA-894'
p740
S'ACCTCCTTA'
p741
sS'Photorhabdus luminescens subsp. laumondii TTO1'
p742
S'ACCTCCTTA'
p743
sS'Streptococcus agalactiae A909'
p744
S'ACCTCCTTT'
p745
sS'Lactobacillus plantarum WCFS1'
p746
S'ACCTCCTTT'
p747
sS'Haemophilus somnus 2336'
p748
S'ACCTCCTTA'
p749
sS'Nakamurella multipartita DSM 44233'
p750
S'ACCTCCTTT'
p751
sS'Denitrovibrio acetiphilus DSM 12809'
p752
S'ACCTCCTTT'
p753
sS'Citrobacter rodentium ICC168'
p754
S'ACCTCCTTA'
p755
sS'Geobacter sp. M21'
p756
S'ACCTCCTTT'
p757
sS'Chlamydia trachomatis A/HAR-13'
p758
S'ACCTCCTTT'
p759
sS'Polaromonas naphthalenivorans CJ2'
p760
S'ACCTCCTTT'
p761
sS'Streptococcus suis 98HAH33'
p762
S'ACCTCCTTT'
p763
sS'Chlamydophila felis Fe/C-56'
p764
S'ACCTCCTTT'
p765
sS'Desulfotomaculum acetoxidans DSM 771'
p766
S'ACCTCCTTT'
p767
sS'Ehrlichia canis str. Jake'
p768
S'ACCTCCTTT'
p769
sS'Salmonella enterica subsp. enterica serovar Newport str. SL254'
p770
S'ACCTCCTTA'
p771
sS'Burkholderia pseudomallei MSHR346'
p772
S'ACCTCCTTT'
p773
sS'Brucella canis ATCC 23365'
p774
S'ACCTCCTTT'
p775
sS'Geobacter uraniireducens Rf4'
p776
S'ACCTCCTTT'
p777
sS'Pseudomonas syringae pv. syringae B728a'
p778
S'ACCTCCTTA'
p779
sS'Bacillus cereus ATCC 14579'
p780
S'ACCTCCTTT'
p781
sS'Streptosporangium roseum DSM 43021'
p782
S'ACCTCCTTT'
p783
sS'Photorhabdus asymbiotica'
p784
S'ACCTCCTTA'
p785
sS'Nitrosomonas eutropha C91'
p786
S'ACCTCCTTT'
p787
sS'Nanoarchaeum equitans Kin4-M'
p788
S'AC'
p789
sS'Blattabacterium sp. (Blattella germanica) str. Bge'
p790
S'ATCTCTTTT'
p791
sS'Clostridiales genomosp. BVAB3 str. UPII9-5'
p792
S'ACCTCCTTT'
p793
sS'Prosthecochloris aestuarii DSM 271'
p794
S'ACCTCCTTT'
p795
sS'Thermoanaerobacter mathranii subsp. mathranii str. A3'
p796
S'ACCTCCTTT'
p797
sS'Streptococcus pneumoniae R6'
p798
S'ACCTCCTTT'
p799
sS'Chlorobium limicola DSM 245'
p800
S'ACCTCCTTT'
p801
sS'Syntrophomonas wolfei subsp. wolfei str. Goettingen'
p802
S'ACCTCCTTT'
p803
sS'Ruegeria sp. TM1040'
p804
S'ACCTCCTTT'
p805
sS'Kosmotoga olearia TBF 19.5.1'
p806
S'ACCTCCTTT'
p807
sS'Rickettsia conorii str. Malish 7'
p808
S'ACCTCCTTA'
p809
sS'Janthinobacterium sp. Marseille'
p810
S'ACCTCCTTT'
p811
sS'Caldivirga maquilingensis IC-167'
p812
S'TGGGGGTCC'
p813
sS'Ferroglobus placidus DSM 10642'
p814
S'ACCTCCTAC'
p815
sS'Cellvibrio japonicus Ueda107'
p816
S'GGTAGCCCT'
p817
sS'Lactobacillus sakei subsp. sakei 23K'
p818
S'ACCTCCTTT'
p819
sS'Streptococcus pneumoniae P1031'
p820
S'ACCTCCTTT'
p821
sS'Bifidobacterium adolescentis ATCC 15703'
p822
S'ACCTCCTTT'
p823
sS'Candidatus Azobacteroides pseudotrichonymphae genomovar. CFP2'
p824
S'ACCTCCTTT'
p825
sS'Hirschia baltica ATCC 49814'
p826
S'ACCTCCTTT'
p827
sS'Nitrosospira multiformis ATCC 25196'
p828
S'ACCTCCTTT'
p829
sS'Jonesia denitrificans DSM 20603'
p830
S'ACCTCCTTT'
p831
sS'Thermoproteus neutrophilus V24Sta'
p832
S'ACCTCCACC'
p833
sS'Pseudomonas aeruginosa PAO1'
p834
S'ACCTCCTTA'
p835
sS'Streptococcus dysgalactiae subsp. equisimilis GGS_124'
p836
S'ACCTCCTTT'
p837
sS'Ralstonia eutropha JMP134'
p838
S'ACCTCCTTT'
p839
sS'Legionella pneumophila subsp. pneumophila str. Philadelphia 1'
p840
S'ACCTCCTTA'
p841
sS'Pseudomonas stutzeri A1501'
p842
S'ACCTCCTTA'
p843
sS'Salmonella enterica subsp. enterica serovar Paratyphi A str. ATCC 9150'
p844
S'ACCTCCTTA'
p845
sS'Akkermansia muciniphila ATCC BAA-835'
p846
S'ACCTCCTTT'
p847
sS'Archaeoglobus profundus DSM 5631'
p848
S'ACCTCCTAA'
p849
sS'Zymomonas mobilis subsp. mobilis NCIMB 11163'
p850
S'ACCTCCTTT'
p851
sS'Chelativorans sp. BNC1'
p852
S'ACCTCCTTT'
p853
sS'Actinosynnema mirum DSM 43827'
p854
S'ACCTCCTTT'
p855
sS'Synechococcus sp. CC9605'
p856
S'ACCTCCTAA'
p857
sS'Escherichia coli SMS-3-5'
p858
S'ACCTCCTTA'
p859
sS'Bacillus clausii KSM-K16'
p860
S'ACCTCCTTT'
p861
sS'Escherichia coli O26:H11 str. 11368'
p862
S'ACCTCCTTA'
p863
sS'Arthrobacter sp. FB24'
p864
S'ACCTCCTTT'
p865
sS'Anoxybacillus flavithermus WK1'
p866
S'ACCTCCTTT'
p867
sS'Desulfomicrobium baculatum DSM 4028'
p868
S'ACCTCCTTA'
p869
sS'Ehrlichia ruminantium str. Gardel'
p870
S'ACCTCCTTT'
p871
sS'Brucella abortus bv. 1 str. 9-941'
p872
S'ACCTCCTTT'
p873
sS'Moorella thermoacetica ATCC 39073'
p874
S'ACCTCCTTT'
p875
sS'Borrelia burgdorferi ZS7'
p876
S'ACCTCCTTT'
p877
sS'Coxiella burnetii RSA 331'
p878
S'ACCTCCTTA'
p879
sS'Shewanella oneidensis MR-1'
p880
S'ACCTCCTTA'
p881
sS'Haemophilus somnus 129PT'
p882
S'AGTCGTAAC'
p883
sS'Burkholderia multivorans ATCC 17616'
p884
S'ACCTCCTTT'
p885
sS'Tropheryma whipplei TW08/27'
p886
S'ACCTCCTTT'
p887
sS'Aeromonas hydrophila subsp. hydrophila ATCC 7966'
p888
S'ACCTCCTTA'
p889
sS'Chlamydophila pneumoniae AR39'
p890
S'ACCTCCTTT'
p891
sS'Candidatus Hodgkinia cicadicola Dsem'
p892
S'CAAGGTAGC'
p893
sS'Erwinia amylovora ATCC 49946'
p894
S'ACCTCCTTA'
p895
sS'Thioalkalivibrio sp. HL-EbGR7'
p896
S'ACCTCCTTT'
p897
sS'Caulobacter crescentus CB15'
p898
S'ACCTCCTTT'
p899
sS'Burkholderia mallei NCTC 10247'
p900
S'ACCTCCTTT'
p901
sS'Neisseria meningitidis alpha14'
p902
S'ACCTCCTTT'
p903
sS'Escherichia coli IAI39'
p904
S'ACCTCCTTA'
p905
sS'Clostridium cellulolyticum H10'
p906
S'ACCTCCTTT'
p907
sS'Ureaplasma urealyticum serovar 10 str. ATCC 33699'
p908
S'ACCTCCTTT'
p909
sS'Chlamydia muridarum Nigg'
p910
S'ACCTCCTTT'
p911
sS'Wolbachia endosymbiont of Culex quinquefasciatus Pel'
p912
S'AAAGTGGGA'
p913
sS'Xylella fastidiosa M12'
p914
S'ACCTCCTTT'
p915
sS'Salmonella enterica subsp. enterica serovar Paratyphi C strain RKS4594'
p916
S'ACCTCCTTA'
p917
sS'Xanthomonas oryzae pv. oryzae PXO99A'
p918
S'ACCTCCTTT'
p919
sS'Thermosipho melanesiensis BI429'
p920
S'ACCTCCTTT'
p921
sS'Pirellula staleyi DSM 6068'
p922
S'ACCTCCTTT'
p923
sS'Candidatus Pelagibacter ubique HTCC1062'
p924
S'ACCTCCTTT'
p925
sS'Hydrogenobaculum sp. Y04AAS1'
p926
S'ACCTCCTTT'
p927
sS'Cyanothece sp. PCC 7424'
p928
S'ACCTCCTTA'
p929
sS'Cyanothece sp. PCC 7425'
p930
S'ACCTCCTTT'
p931
sS'Streptococcus thermophilus CNRZ1066'
p932
S'ACCTCCTTT'
p933
sS'Thermotoga sp. RQ2'
p934
S'GCCGTACCG'
p935
sS'Pseudomonas mendocina ymp'
p936
S'ACCTCCTTA'
p937
sS'Tropheryma whipplei str. Twist'
p938
S'ACCTCCTTT'
p939
sS'Leptospira borgpetersenii serovar Hardjo-bovis JB197'
p940
S'ACCTCCTTT'
p941
sS'Legionella longbeachae NSW150'
p942
S'ACCTCCTTA'
p943
sS'Gramella forsetii KT0803'
p944
S'ACCTCCTTT'
p945
sS'Borrelia afzelii PKo'
p946
S'ATCTCCTTT'
p947
sS'Borrelia burgdorferi B31'
p948
S'ACCTCCTTT'
p949
sS'Klebsiella variicola At-22'
p950
S'ACCTCCTTA'
p951
sS'Ruegeria pomeroyi DSS-3'
p952
S'ACCTCCTTT'
p953
sS'Acinetobacter baumannii SDF'
p954
S'ACCTCCTTA'
p955
sS'Brucella melitensis biovar Abortus 2308'
p956
S'ACCTCCTTT'
p957
sS'Hyperthermus butylicus DSM 5456'
p958
S'CGCGGAATC'
p959
sS'Mycobacterium ulcerans Agy99'
p960
S'ACCTCCTTT'
p961
sS'Methanohalophilus mahii DSM 5219'
p962
S'ACCTCCTAA'
p963
sS'Candidatus Vesicomyosocius okutanii HA'
p964
S'ACCTCCTTA'
p965
sS'Methanocella paludicola SANAE'
p966
S'ACCTCCTAA'
p967
sS'Rickettsia rickettsii str. Iowa'
p968
S'ACCTCCTTA'
p969
sS'Pseudomonas fluorescens Pf-5'
p970
S'ACCTCCTTA'
p971
sS'Beijerinckia indica subsp. indica ATCC 9039'
p972
S'ACCTCCTTT'
p973
sS'Granulibacter bethesdensis CGDNIH1'
p974
S'ACCTCCTTT'
p975
sS'Escherichia coli HS'
p976
S'ACCTCCTTA'
p977
sS'Methylotenera mobilis JLW8'
p978
S'ACCTCCTTT'
p979
sS'Candidatus Accumulibacter phosphatis clade IIA str. UW-1'
p980
S'ACCTCCTTT'
p981
sS'Vibrio parahaemolyticus RIMD 2210633'
p982
S'ACCTCCTTA'
p983
sS'Anaplasma marginale str. Florida'
p984
S'TAGCTGTAG'
p985
sS'Candidatus Sulcia muelleri SMDSEM'
p986
S'ATCTCTGTT'
p987
sS"Rickettsia rickettsii str. 'Sheila Smith'"
p988
S'ACCTCCTTA'
p989
sS'Chlorobium phaeobacteroides BS1'
p990
S'ACCTCCTTT'
p991
sS'Prochlorococcus marinus str. NATL2A'
p992
S'ACCTCCTAA'
p993
sS'Methylacidiphilum infernorum V4'
p994
S'ACCTCCTTT'
p995
sS'Nitrosococcus oceani ATCC 19707'
p996
S'ATCACCTCC'
p997
sS'Acinetobacter baumannii AB0057'
p998
S'CACCTCCTT'
p999
sS'Yersinia pestis KIM 10'
p1000
S'ACCTCCTTA'
p1001
sS'Pyrococcus furiosus DSM 3638'
p1002
S'ACCTCCTAT'
p1003
sS'Neisseria meningitidis MC58'
p1004
S'ACCTCCTTT'
p1005
sS'Mycoplasma hyopneumoniae 232'
p1006
S'ACCTCCTTT'
p1007
sS'Sulfolobus islandicus Y.G.57.14'
p1008
S'ACCTCATAG'
p1009
sS'Orientia tsutsugamushi str. Boryong'
p1010
S'ACCTCCTTT'
p1011
sS'Erythrobacter litoralis HTCC2594'
p1012
S'ACCTCCTTT'
p1013
sS'Caulobacter sp. K31'
p1014
S'ACCTCCTTT'
p1015
sS'Geobacter sulfurreducens PCA'
p1016
S'ACCTCCTTT'
p1017
sS'Helicobacter pylori Shi470'
p1018
S'CCAAGAGTA'
p1019
sS'Xanthomonas campestris pv. vesicatoria str. 85-10'
p1020
S'ACCTCCTTT'
p1021
sS"Synechococcus sp. JA-2-3B'a(2-13)"
p1022
S'CTGGTGACT'
p1023
sS'Staphylothermus marinus F1'
p1024
S'ACCTCCCGC'
p1025
sS'Listeria monocytogenes EGD-e'
p1026
S'ACCTCCTTT'
p1027
sS'Bordetella bronchiseptica RB50'
p1028
S'ACCTCCTTT'
p1029
sS'Acinetobacter baumannii AB307-0294'
p1030
S'ACCTCCTTA'
p1031
sS'Stackebrandtia nassauensis DSM 44728'
p1032
S'ACCTCCTTT'
p1033
sS'Rhizobium leguminosarum bv. viciae 3841'
p1034
S'ACCTCCTTT'
p1035
sS"Aster yellows witches'-broom phytoplasma AYWB"
p1036
S'ACCTCCTTT'
p1037
sS'Bartonella quintana str. Toulouse'
p1038
S'ACCTCCTTT'
p1039
sS'Rhodobacter sphaeroides ATCC 17025'
p1040
S'ACCTCCTTT'
p1041
sS'Ureaplasma parvum serovar 3 str. ATCC 27815'
p1042
S'ACCTCCTTT'
p1043
sS'Lactococcus lactis subsp. lactis Il1403'
p1044
S'ACCTCCTTT'
p1045
sS'Nostoc sp. PCC 7120'
p1046
S'ACCTCCTTT'
p1047
sS'Escherichia coli UMN026'
p1048
S'ACCTCCTTA'
p1049
sS'Streptococcus equi subsp. equi 4047'
p1050
S'ACCTCCTTT'
p1051
sS'Chlamydophila abortus S26/3'
p1052
S'ACCTCCTTT'
p1053
sS'Streptococcus pyogenes MGAS9429'
p1054
S'TCAAATTCC'
p1055
sS'Rhodobacter sphaeroides ATCC 17029'
p1056
S'ACCTCCTTT'
p1057
sS'Tolumonas auensis DSM 9187'
p1058
S'ACCTCCTTA'
p1059
sS'Methanosarcina barkeri str. Fusaro'
p1060
S'ACCTCCTAA'
p1061
sS'Streptococcus pyogenes NZ131'
p1062
S''
sS'Salmonella enterica subsp. enterica serovar Dublin str. CT_02021853'
p1063
S'TAACCGTAG'
p1064
sS'Azoarcus sp. BH72'
p1065
S'ACCTCCTTT'
p1066
sS'Bradyrhizobium sp. ORS278'
p1067
S'ACCTCCTTT'
p1068
sS'cyanobacterium UCYN-A'
p1069
S'ACCTCCTTA'
p1070
sS'Vibrio fischeri MJ11'
p1071
S'ACCTCCTTA'
p1072
sS'Helicobacter hepaticus ATCC 51449'
p1073
S'GGCGGATGC'
p1074
sS'Thermodesulfovibrio yellowstonii DSM 11347'
p1075
S'ACCTCCTTT'
p1076
sS'Desulfovibrio desulfuricans subsp. desulfuricans str. G20'
p1077
S'ACCTCCTTT'
p1078
sS'Propionibacterium acnes SK137'
p1079
S'ACCTCCTTT'
p1080
sS'Clostridium botulinum E3 str. Alaska E43'
p1081
S'ACCTCCTTT'
p1082
sS'Colwellia psychrerythraea 34H'
p1083
S'ACCTCCTTA'
p1084
sS'Acetobacter pasteurianus IFO 3283-01'
p1085
S'GAAGGTTTC'
p1086
sS'Shewanella sp. MR-4'
p1087
S'ACCTCCTTA'
p1088
sS'Streptococcus pyogenes MGAS8232'
p1089
S'ACCTCCTTT'
p1090
sS'Deferribacter desulfuricans SSM1'
p1091
S'TAGCCGTAC'
p1092
sS'Shewanella sp. MR-7'
p1093
S'ACCTCCTTA'
p1094
sS'Wolbachia sp. wRi'
p1095
S'TAGGCTTTG'
p1096
sS'Acidovorax ebreus TPSY'
p1097
S'ACCTCCTTT'
p1098
sS'Oligotropha carboxidovorans OM5'
p1099
S'ACCTCCTTT'
p1100
sS'Mycobacterium bovis AF2122/97'
p1101
S'ACCTCCTTT'
p1102
sS'Desulfovibrio salexigens DSM 2638'
p1103
S'ACCTCCTTT'
p1104
sS'Lactobacillus acidophilus NCFM'
p1105
S'ACCTCCTTT'
p1106
sS'Neisseria gonorrhoeae FA 1090'
p1107
S'ACCTCCTTT'
p1108
sS'Teredinibacter turnerae T7901'
p1109
S'ACCTCCTTA'
p1110
sS'Mycoplasma crocodyli MP145'
p1111
S'ACCTCCTTT'
p1112
sS'Shewanella baltica OS195'
p1113
S'ACCTCCTTA'
p1114
sS'Streptococcus agalactiae 2603V/R'
p1115
S'ACCTCCTTT'
p1116
sS'Ammonifex degensii KC4'
p1117
S'ACCTCCTTT'
p1118
sS'Corynebacterium kroppenstedtii DSM 44385'
p1119
S'ACCTCCTTT'
p1120
sS'Paracoccus denitrificans PD1222'
p1121
S'ACCTCCTTT'
p1122
sS'Methanococcus maripaludis C6'
p1123
S'ACCTCCTAA'
p1124
sS'Staphylococcus epidermidis RP62A'
p1125
S'ACCTCCTTT'
p1126
sS'Bifidobacterium animalis subsp. lactis Bl-04'
p1127
S'ACCTCCTTT'
p1128
sS'Thermococcus sibiricus MM 739'
p1129
S'ACCTCCTAT'
p1130
sS'Bradyrhizobium sp. BTAi1'
p1131
S'ACCTCCTTT'
p1132
sS'Vibrio cholerae O1 biovar El Tor str. N16961'
p1133
S'ACCTCCTTA'
p1134
sS'Thermoplasma acidophilum DSM 1728'
p1135
S'ACCTCCAAG'
p1136
sS'Staphylococcus aureus subsp. aureus N315'
p1137
S'ACCTCCTTT'
p1138
sS'Methylobacterium sp. 4-46'
p1139
S'ACCTCCTTT'
p1140
sS'Onion yellows phytoplasma OY-M'
p1141
S'ACCTCCTTT'
p1142
sS'Salmonella enterica subsp. enterica serovar Agona str. SL483'
p1143
S'TAACCGTAG'
p1144
sS'Methylobacterium radiotolerans JCM 2831'
p1145
S'ACCTCCTTT'
p1146
sS'Clostridium botulinum F str. Langeland'
p1147
S'ACCTCCTTT'
p1148
sS'Aminobacterium colombiense DSM 12261'
p1149
S'ACCTCCTTT'
p1150
sS'Thermobispora bispora DSM 43833'
p1151
S'ACCTCCTTT'
p1152
sS'Streptococcus pyogenes SSI-1'
p1153
S'ACCTCCTTT'
p1154
sS'Escherichia coli CFT073'
p1155
S'ACCTCCTTA'
p1156
sS'Shewanella amazonensis SB2B'
p1157
S'ACCTCCTTA'
p1158
sS'Haemophilus influenzae Rd KW20'
p1159
S'AGTCGTAAC'
p1160
sS'Prochlorococcus marinus subsp. pastoris str. CCMP1986'
p1161
S'ACCTCCTAA'
p1162
sS'Listeria monocytogenes HCC23'
p1163
S'ACCTCCTTT'
p1164
sS'Xanthomonas axonopodis pv. citri str. 306'
p1165
S'ACCTCCTTT'
p1166
sS'Bacillus thuringiensis str. Al Hakam'
p1167
S'ACCTCCTTT'
p1168
sS'Clostridium acetobutylicum ATCC 824'
p1169
S'ACCTCCTTT'
p1170
sS'Bifidobacterium animalis subsp. lactis DSM 10140'
p1171
S'ACCTCCTTT'
p1172
sS'Thermoplasma volcanium GSS1'
p1173
S'ACCTCCAAG'
p1174
sS'Rhodopirellula baltica SH 1'
p1175
S'ACCTCCTTT'
p1176
sS'Anaplasma marginale str. St. Maries'
p1177
S'ACCTCCTTT'
p1178
sS'Flavobacterium psychrophilum JIP02/86'
p1179
S'ACCTCCTTT'
p1180
sS'Listeria monocytogenes str. 4b F2365'
p1181
S'ACCTCCTTT'
p1182
sS'Pyrobaculum arsenaticum DSM 13514'
p1183
S'ACCTCCACC'
p1184
sS'Shigella flexneri 5 str. 8401'
p1185
S'ACCTCCTTA'
p1186
sS'Pyrococcus horikoshii OT3'
p1187
S'ACCTCCTAT'
p1188
sS'Phenylobacterium zucineum HLK1'
p1189
S'GACTTTCTG'
p1190
sS'Clostridium beijerinckii NCIMB 8052'
p1191
S'ACCTCCTTT'
p1192
sS'Myxococcus xanthus DK 1622'
p1193
S'ACCTCCTTT'
p1194
sS'Streptococcus pyogenes MGAS6180'
p1195
S'TATATAATA'
p1196
sS'Chloroflexus aurantiacus J-10-fl'
p1197
S'ACCTCCTTT'
p1198
sS'Streptococcus mutans UA159'
p1199
S'ACCTCCTTT'
p1200
sS'Yersinia pestis biovar Microtus str. 91001'
p1201
S'ACCTCCTTA'
p1202
sS'Enterobacter sp. 638'
p1203
S'ACCTCCTTA'
p1204
sS'Francisella novicida U112'
p1205
S'ACCTCCTTA'
p1206
sS'Mycoplasma genitalium G37'
p1207
S'ACCTCCTTT'
p1208
sS'Micrococcus luteus NCTC 2665'
p1209
S'TGTTGGTGG'
p1210
sS'Sphingopyxis alaskensis RB2256'
p1211
S'ACCTCCTTT'
p1212
sS'Tsukamurella paurometabola DSM 20162'
p1213
S'ACCTCCTTT'
p1214
sS'Methanoculleus marisnigri JR1'
p1215
S'ACCTCCTAA'
p1216
sS'Mycobacterium tuberculosis H37Rv'
p1217
S'ACCTCCTTT'
p1218
sS'Microcystis aeruginosa NIES-843'
p1219
S'ACCTCCTTA'
p1220
sS'Agrobacterium tumefaciens str. C58'
p1221
S'ACCTCCTTT'
p1222
sS'Sulfolobus islandicus Y.N.15.51'
p1223
S'ACCTCATAG'
p1224
sS'Xanthomonas albilineans'
p1225
S'ACCTCCTTT'
p1226
sS'Porphyromonas gingivalis ATCC 33277'
p1227
S'ACCTCCTTT'
p1228
sS'Mycobacterium tuberculosis H37Ra'
p1229
S'ACCTCCTTT'
p1230
sS'Neorickettsia risticii str. Illinois'
p1231
S'ACCTCCTTT'
p1232
sS'Salmonella enterica subsp. enterica serovar Schwarzengrund str. CVM19633'
p1233
S'ACCTCCTTA'
p1234
sS'Candidatus Korarchaeum cryptofilum OPF8'
p1235
S'ACCTCCCAT'
p1236
sS'Staphylothermus hellenicus DSM 12710'
p1237
S'ACCTCCCGC'
p1238
sS'Clostridium tetani E88'
p1239
S'ACCTCCTTT'
p1240
sS'Campylobacter jejuni subsp. doylei 269.97'
p1241
S'ACCTCCTTT'
p1242
sS'Syntrophobacter fumaroxidans MPOB'
p1243
S'ACCTCCTTT'
p1244
sS'Streptococcus pneumoniae 70585'
p1245
S'ACCTCCTTT'
p1246
sS'Dehalococcoides sp. BAV1'
p1247
S'ACCTCCTTT'
p1248
sS'Allochromatium vinosum DSM 180'
p1249
S'ACCTCCTTA'
p1250
sS'Borrelia garinii PBi'
p1251
S'ACCTCCTTT'
p1252
sS'Escherichia coli str. K-12 substr. W3110'
p1253
S'ACCTCCTTA'
p1254
sS'Francisella tularensis subsp. tularensis WY96-3418'
p1255
S'ACCTCCTTA'
p1256
sS'Burkholderia pseudomallei K96243'
p1257
S'ACCTCCTTT'
p1258
sS'Bacillus cereus B4264'
p1259
S'ACCTCCTTT'
p1260
sS'Bordetella avium 197N'
p1261
S'ACCTCCTTT'
p1262
sS'Listeria monocytogenes Clip80459'
p1263
S'ACCTCCTTT'
p1264
sS'Meiothermus silvanus DSM 9946'
p1265
S'ACCTCCTTT'
p1266
sS'Mycobacterium bovis BCG str. Tokyo 172'
p1267
S'ACCTCCTTT'
p1268
sS'Catenulispora acidiphila DSM 44928'
p1269
S'ACCTCCTTT'
p1270
sS'Sulfurospirillum deleyianum DSM 6946'
p1271
S'ACCTCCTTT'
p1272
sS'Mycoplasma conjunctivae HRC/581'
p1273
S'TCAACATGC'
p1274
sS'Chlamydophila pneumoniae CWL029'
p1275
S'ACCTCCTTT'
p1276
sS'Sphaerobacter thermophilus DSM 20745'
p1277
S'ACCTCCTTT'
p1278
sS'Methanococcus maripaludis S2'
p1279
S'ACCTCCTAA'
p1280
sS'Campylobacter curvus 525.92'
p1281
S'CCATACTCC'
p1282
sS'Haemophilus ducreyi 35000HP'
p1283
S'ACCTCCTTA'
p1284
sS'Desulfohalobium retbaense DSM 5692'
p1285
S'ACCTCCTTT'
p1286
sS'Salmonella enterica subsp. enterica serovar Heidelberg str. SL476'
p1287
S'ACCTCCTTA'
p1288
sS'Streptococcus pyogenes MGAS2096'
p1289
S'TATATAATA'
p1290
sS'Gluconacetobacter diazotrophicus PAl 5'
p1291
S'ACCTCCTTT'
p1292
sS'Streptococcus pyogenes MGAS10394'
p1293
S'ACCTCCTTT'
p1294
sS'Methanocaldococcus fervens AG86'
p1295
S'ACCTCCTGA'
p1296
sS'Haliangium ochraceum DSM 14365'
p1297
S'ACCTCCTTT'
p1298
sS'Methylocella silvestris BL2'
p1299
S'ACCTCCTTT'
p1300
sS'Francisella philomiragia subsp. philomiragia ATCC 25017'
p1301
S'ACCTCCTTA'
p1302
sS'Moraxella catarrhalis RH4'
p1303
S'ACCTCCTTA'
p1304
sS'Staphylococcus aureus subsp. aureus Mu3'
p1305
S'ACCTCCTTT'
p1306
sS'Clostridium botulinum Ba4 str. 657'
p1307
S'ACCTCCTTT'
p1308
sS'Rhizobium leguminosarum bv. trifolii WSM1325'
p1309
S'ACCTCCTTT'
p1310
sS'Saccharopolyspora erythraea NRRL 2338'
p1311
S'ACCTCCTTT'
p1312
sS'Rickettsia bellii OSU 85-389'
p1313
S'ACCTCCTTA'
p1314
sS'Gardnerella vaginalis 409-05'
p1315
S'ACCTCCTTT'
p1316
sS'Vibrio cholerae M66-2'
p1317
S'GATCACCTC'
p1318
sS'Staphylococcus carnosus subsp. carnosus TM300'
p1319
S'ACCTCCTTT'
p1320
sS'Corynebacterium jeikeium K411'
p1321
S'ACCTCCTTT'
p1322
sS'Burkholderia cenocepacia J2315'
p1323
S'AGTCGTAAC'
p1324
sS'Methylococcus capsulatus str. Bath'
p1325
S'ACCTCCTTT'
p1326
sS'Escherichia fergusonii ATCC 35469'
p1327
S'ACCTCCTTA'
p1328
sS'Acidovorax citrulli AAC00-1'
p1329
S'ACCTCCTTT'
p1330
sS'Methanosaeta thermophila PT'
p1331
S'ACCTCCTAG'
p1332
sS'Mycobacterium sp. MCS'
p1333
S'ACCTCCTTT'
p1334
sS'Streptococcus pneumoniae D39'
p1335
S'ACCTCCTTT'
p1336
sS'Legionella pneumophila str. Corby'
p1337
S'ACCTCCTTA'
p1338
sS'Buchnera aphidicola str. Sg (Schizaphis graminum)'
p1339
S'ACCTCCTTA'
p1340
sS'Acidovorax sp. JS42'
p1341
S'ACCTCCTTT'
p1342
sS'Baumannia cicadellinicola str. Hc (Homalodisca coagulata)'
p1343
S'ACCTCCTTA'
p1344
sS'Rhizobium etli CFN 42'
p1345
S'ACCTCCTTT'
p1346
sS'Hahella chejuensis KCTC 2396'
p1347
S'ACCTCCTTA'
p1348
sS'Lactobacillus delbrueckii subsp. bulgaricus ATCC 11842'
p1349
S'ACCTCCTTT'
p1350
sS'Aquifex aeolicus VF5'
p1351
S'ACCTCCTTT'
p1352
sS'Xanthomonas campestris pv. campestris str. B100'
p1353
S'ACCTCCTTT'
p1354
sS'Ureaplasma parvum serovar 3 str. ATCC 700970'
p1355
S'ACCTCCTTT'
p1356
sS'Borrelia turicatae 91E135'
p1357
S'ACCTCCTTT'
p1358
sS'Psychrobacter cryohalolentis K5'
p1359
S'ACCTCCTTA'
p1360
sS'Pseudomonas fluorescens SBW25'
p1361
S'ACCTCCTTA'
p1362
sS'Halothermothrix orenii H 168'
p1363
S'ACCTCCTTT'
p1364
sS'Bacillus thuringiensis BMB171'
p1365
S'ACCTCCTTT'
p1366
sS'Streptococcus mitis B6'
p1367
S'ACCTCCTTT'
p1368
sS'Eubacterium rectale ATCC 33656'
p1369
S'ACCTCCTTT'
p1370
sS'Mycoplasma penetrans HF-2'
p1371
S'ACCTCCTTT'
p1372
sS'Methanopyrus kandleri AV19'
p1373
S'ATGATGCGG'
p1374
sS'Xanthomonas campestris pv. campestris str. 8004'
p1375
S'ACCTCCTTT'
p1376
sS'Mycobacterium marinum M'
p1377
S'ACCTCCTTT'
p1378
sS'Pseudomonas putida W619'
p1379
S'ACCTCCTTA'
p1380
sS'Sulfurovum sp. NBC37-1'
p1381
S'ACCTCCTTT'
p1382
sS'Sulfolobus islandicus M.16.4'
p1383
S'ACCTCATAG'
p1384
sS'Veillonella parvula DSM 2008'
p1385
S'ACCTCCTTT'
p1386
sS'Shewanella halifaxensis HAW-EB4'
p1387
S'ACCTCCTTA'
p1388
sS'Shewanella sp. ANA-3'
p1389
S'ACCTCCTTA'
p1390
sS'Streptococcus pyogenes M1 GAS'
p1391
S'ACCTCCTTT'
p1392
sS'Burkholderia mallei ATCC 23344'
p1393
S'ACCTCCTTT'
p1394
sS'Mesoplasma florum L1'
p1395
S'ACCTCCTTT'
p1396
sS'Neorickettsia sennetsu str. Miyayama'
p1397
S'ACCTCCTTT'
p1398
sS'Stenotrophomonas maltophilia R551-3'
p1399
S'ACCTCCTTT'
p1400
sS'Chloroflexus aggregans DSM 9485'
p1401
S'ACCTCCTTT'
p1402
sS'Mycoplasma agalactiae'
p1403
S'ACCTCCTTT'
p1404
sS'Yersinia pestis Antiqua'
p1405
S'ACCTCCTTA'
p1406
sS'Staphylococcus aureus subsp. aureus JH9'
p1407
S'ACCTCCTTT'
p1408
sS'Desulfurococcus kamchatkensis 1221n'
p1409
S'AGTCGTAAC'
p1410
sS'Proteus mirabilis HI4320'
p1411
S'ACCTCCTTA'
p1412
sS'Helicobacter pylori P12'
p1413
S'ACCTCCTTT'
p1414
sS'Psychromonas ingrahamii 37'
p1415
S'ACCTCCTTA'
p1416
sS'Dehalococcoides sp. GT'
p1417
S'ACCTCCTTT'
p1418
sS'Ralstonia eutropha H16'
p1419
S'AGTCGTAAC'
p1420
sS'Thermomicrobium roseum DSM 5159'
p1421
S'ACCTCCTTT'
p1422
sS'Lactobacillus rhamnosus GG'
p1423
S'ACCTCCTTT'
p1424
sS"Sodalis glossinidius str. 'morsitans'"
p1425
S'ACCTCCTTA'
p1426
sS'Arcanobacterium haemolyticum DSM 20595'
p1427
S'ACCTCCTTT'
p1428
sS'Bacillus pumilus SAFR-032'
p1429
S'ACCTCCTTT'
p1430
sS'Escherichia coli SE11'
p1431
S'ACCTCCTTA'
p1432
sS'Thiomonas intermedia K12'
p1433
S'ACCTCCTTT'
p1434
sS'Campylobacter jejuni subsp. jejuni 81116'
p1435
S'ACCTCCTTT'
p1436
sS'Acaryochloris marina MBIC11017'
p1437
S'ACCTCCTTT'
p1438
sS'Mycobacterium bovis BCG str. Pasteur 1173P2'
p1439
S'ACCTCCTTT'
p1440
sS'Syntrophus aciditrophicus SB'
p1441
S'ACCTCCTTT'
p1442
sS'Salmonella enterica subsp. arizonae serovar 62:z4,z23:--'
p1443
S'GCGTTAATC'
p1444
sS'Candidatus Koribacter versatilis Ellin345'
p1445
S'ACCTCCTTT'
p1446
sS'Conexibacter woesei DSM 14684'
p1447
S'ACCTCCTTT'
p1448
sS'Clostridium botulinum B str. Eklund 17B'
p1449
S'ACCTCCTTT'
p1450
sS'Desulfovibrio desulfuricans subsp. desulfuricans str. ATCC 27774'
p1451
S'ACCTCCTTT'
p1452
sS'Escherichia coli O55:H7 str. CB9615'
p1453
S'ACCTCCTTA'
p1454
sS'Staphylococcus aureus subsp. aureus JH1'
p1455
S'ACCTCCTTT'
p1456
sS'Sulfolobus islandicus M.14.25'
p1457
S'ACCTCATAG'
p1458
sS'Pelobacter carbinolicus DSM 2380'
p1459
S'ACCTCCTTT'
p1460
sS'Saccharomonospora viridis DSM 43017'
p1461
S'ACCTCCTTT'
p1462
sS'Candidatus Hamiltonella defensa 5AT (Acyrthosiphon pisum)'
p1463
S'ACCTCCTTA'
p1464
sS'Wolbachia endosymbiont strain TRS of Brugia malayi'
p1465
S'TGGGCTTTG'
p1466
sS'Finegoldia magna ATCC 29328'
p1467
S'ACCTCCTTT'
p1468
sS'Coprothermobacter proteolyticus DSM 5265'
p1469
S'ACCTCCTTT'
p1470
sS'uncultured methanogenic archaeon RC-I'
p1471
S'ACCTCCTAA'
p1472
sS'Kytococcus sedentarius DSM 20547'
p1473
S'ACCTCCTTT'
p1474
sS'Bacillus cereus AH187'
p1475
S'ACCTCCTTT'
p1476
sS'Salmonella enterica subsp. enterica serovar Choleraesuis str. SC-B67'
p1477
S'TAACCGTAG'
p1478
sS'Thermoanaerobacter tengcongensis MB4'
p1479
S'ACCTCCTTT'
p1480
sS'Campylobacter fetus subsp. fetus 82-40'
p1481
S'ACCTCCTTT'
p1482
sS'Francisella tularensis subsp. mediasiatica FSC147'
p1483
S'ACCTCCTTA'
p1484
sS'Dickeya dadantii Ech586'
p1485
S'ACCTCCTTA'
p1486
sS'Mycoplasma agalactiae PG2'
p1487
S'ACCTCCTTT'
p1488
sS'Campylobacter hominis ATCC BAA-381'
p1489
S'ACCTCCTTT'
p1490
sS'Bacillus megaterium QM B1551'
p1491
S'ACCTCCTTT'
p1492
sS'Streptococcus pneumoniae G54'
p1493
S'ACCTCCTTT'
p1494
sS'Bordetella parapertussis 12822'
p1495
S'ACCTCCTTT'
p1496
sS'Leptothrix cholodnii SP-6'
p1497
S'ACCTCCTTT'
p1498
sS'Caldicellulosiruptor saccharolyticus DSM 8903'
p1499
S'ACCTCCTTT'
p1500
sS'Chlorobaculum parvum NCIB 8327'
p1501
S'ACCTCCTTT'
p1502
sS'Bacillus selenitireducens MLS10'
p1503
S'ACCTCCTTT'
p1504
sS'Nitrobacter winogradskyi Nb-255'
p1505
S'ACCTCCTTT'
p1506
sS'Aeromonas salmonicida subsp. salmonicida A449'
p1507
S'ACCTCCTTA'
p1508
sS'Haloferax volcanii DS2'
p1509
S'ACCTCCTAA'
p1510
sS'Desulfurivibrio alkaliphilus AHT2'
p1511
S'ACCTCCTTT'
p1512
sS'Brachybacterium faecium DSM 4810'
p1513
S'ACCTCCTTT'
p1514
sS'Dictyoglomus turgidum DSM 6724'
p1515
S'ACCTCCTTT'
p1516
sS'Buchnera aphidicola str. 5A (Acyrthosiphon pisum)'
p1517
S'ACCTCCTTA'
p1518
sS'Yersinia pestis Angola'
p1519
S'ACCTCCTTA'
p1520
sS'Thermotoga petrophila RKU-1'
p1521
S'ACCTCCTTT'
p1522
sS'Rhodothermus marinus DSM 4252'
p1523
S'ACCTCCTAA'
p1524
sS'Mycobacterium abscessus ATCC 19977'
p1525
S'ACCTCCTTT'
p1526
sS'Mycobacterium sp. KMS'
p1527
S'ACCTCCTTT'
p1528
sS'Corynebacterium aurimucosum ATCC 700975'
p1529
S'ACCTCCTTT'
p1530
sS'Salinispora tropica CNB-440'
p1531
S'ACCTCCTTT'
p1532
sS'Rhodopseudomonas palustris BisB18'
p1533
S'ACCTCCTTT'
p1534
sS'Vibrio sp. Ex25'
p1535
S'ACCTCCTTA'
p1536
sS'Thermoanaerobacter sp. X514'
p1537
S'ACCTCCTTT'
p1538
sS'Clavibacter michiganensis subsp. michiganensis NCPPB 382'
p1539
S'ACCTCCTTT'
p1540
sS'Bacillus cereus AH820'
p1541
S'ACCTCCTTT'
p1542
sS'Exiguobacterium sibiricum 255-15'
p1543
S'ACCTCCTTT'
p1544
sS'Rhizobium etli CIAT 652'
p1545
S'ACCTCCTTT'
p1546
sS'Eubacterium eligens ATCC 27750'
p1547
S'ACCTCCTTT'
p1548
sS'Psychrobacter sp. PRwf-1'
p1549
S'ACCTCCTTA'
p1550
sS'Dehalococcoides sp. CBDB1'
p1551
S'ACCTCCTTT'
p1552
sS'Geobacillus kaustophilus HTA426'
p1553
S'ACCTCCTTT'
p1554
sS'Bacillus cytotoxicus NVH 391-98'
p1555
S'ACCTCCTTT'
p1556
sS'Chlamydia trachomatis D/UW-3/CX'
p1557
S'ACCTCCTTT'
p1558
sS'Aromatoleum aromaticum EbN1'
p1559
S'ACCTCCTTT'
p1560
sS'Yersinia pseudotuberculosis IP 32953'
p1561
S'ACCTCCTTA'
p1562
sS'Campylobacter concisus 13826'
p1563
S'ACCTCCTTT'
p1564
sS'Elusimicrobium minutum Pei191'
p1565
S'ACCTCCTTT'
p1566
sS'Shewanella putrefaciens CN-32'
p1567
S'ACCTCCTTA'
p1568
sS'Nocardiopsis dassonvillei subsp. dassonvillei DSM 43111'
p1569
S'ACCTCCTTT'
p1570
sS'Eggerthella lenta DSM 2243'
p1571
S'ACCTCCTTT'
p1572
sS'Clostridium difficile R20291'
p1573
S'ACCTCCTTT'
p1574
sS'Shigella sonnei Ss046'
p1575
S'ACCTCCTTA'
p1576
sS'Klebsiella pneumoniae 342'
p1577
S'ACCTCCTTA'
p1578
sS'Yersinia pseudotuberculosis PB1/+'
p1579
S'ACCTCCTTA'
p1580
sS'Heliobacterium modesticaldum Ice1'
p1581
S'ACCTCCTTT'
p1582
sS'Acinetobacter sp. DR1'
p1583
S'ACCTCCTTA'
p1584
sS'Dickeya zeae Ech1591'
p1585
S'ACCTCCTTA'
p1586
sS'Helicobacter pylori B8'
p1587
S'ACCTCCTTT'
p1588
sS'Persephonella marina EX-H1'
p1589
S'TACTGGGCG'
p1590
sS'Prochlorococcus marinus subsp. marinus str. CCMP1375'
p1591
S'ACCTCCTAA'
p1592
sS'Escherichia coli S88'
p1593
S'ACCTCCTTA'
p1594
sS'Shewanella baltica OS185'
p1595
S'ACCTCCTTA'
p1596
sS'Methanococcus maripaludis C7'
p1597
S'ACCTCCTAA'
p1598
sS'Prevotella ruminicola 23'
p1599
S'AACTGGTAA'
p1600
sS'Methanococcus maripaludis C5'
p1601
S'ACCTCCTAA'
p1602
sS'Methanosphaera stadtmanae DSM 3091'
p1603
S'ACCTCCTAA'
p1604
sS'Methanobrevibacter ruminantium M1'
p1605
S'ACCTCCTTA'
p1606
sS'Burkholderia mallei SAVP1'
p1607
S'ACCTCCTTT'
p1608
sS'Maricaulis maris MCS10'
p1609
S'ACCTCCTTT'
p1610
sS'Methanococcoides burtonii DSM 6242'
p1611
S'ACCTCCTAA'
p1612
sS'Alicyclobacillus acidocaldarius subsp. acidocaldarius DSM 446'
p1613
S'ACCTCCTTT'
p1614
sS'Staphylococcus lugdunensis HKU09-01'
p1615
S'ACCTCCTTT'
p1616
sS'Methylobacterium extorquens PA1'
p1617
S'ACCTCCTTT'
p1618
sS'Edwardsiella ictaluri 93-146'
p1619
S'GGTGCAAGC'
p1620
sS'Listeria monocytogenes 08-5923'
p1621
S'ACCTCCTTT'
p1622
sS'Xanthomonas campestris pv. campestris str. ATCC 33913'
p1623
S'ACCTCCTTT'
p1624
sS'Aggregatibacter actinomycetemcomitans D11S-1'
p1625
S'ACCTCCTTA'
p1626
sS'Dichelobacter nodosus VCS1703A'
p1627
S'ACCTCCTTT'
p1628
sS'Campylobacter lari RM2100'
p1629
S'ACCTCCTTT'
p1630
sS'Burkholderia cenocepacia AU 1054'
p1631
S'ACCTCCTTT'
p1632
sS'Methylovorus sp. SIP3-4'
p1633
S'ACCTCCTTT'
p1634
sS'Synechococcus sp. JA-3-3Ab'
p1635
S'CTGGTGACT'
p1636
sS'Klebsiella pneumoniae subsp. pneumoniae MGH 78578'
p1637
S'ACCTCCTTA'
p1638
sS'uncultured Termite group 1 bacterium phylotype Rs-D17'
p1639
S'TTAATGGTC'
p1640
sS'Wolinella succinogenes DSM 1740'
p1641
S'ACCTCCTTT'
p1642
sS'Bradyrhizobium japonicum USDA 110'
p1643
S'ACCTCCTTT'
p1644
sS'Bacillus pseudofirmus OF4'
p1645
S'ACCTCCTTT'
p1646
sS'Methylobacterium nodulans ORS 2060'
p1647
S'ACCTCCTTT'
p1648
sS'Staphylococcus saprophyticus subsp. saprophyticus ATCC 15305'
p1649
S'ACCTCCTTT'
p1650
sS'Thermococcus gammatolerans EJ3'
p1651
S'ACCTCCTAT'
p1652
sS'Candidatus Ruthia magnifica str. Cm (Calyptogena magnifica)'
p1653
S'ACCTCCTTA'
p1654
sS'Bacillus halodurans C-125'
p1655
S'ACCTCCTTT'
p1656
sS'Lactobacillus plantarum JDM1'
p1657
S'ACCTCCTTT'
p1658
sS'Neisseria meningitidis 053442'
p1659
S'ACCTCCTTT'
p1660
sS'Methylotenera sp. 301'
p1661
S'GTCGTAACA'
p1662
sS'Anaplasma phagocytophilum HZ'
p1663
S'AAGGTTGGG'
p1664
sS'Synechococcus sp. RCC307'
p1665
S'ACCTCCTAA'
p1666
sS'Mycoplasma hyopneumoniae 7448'
p1667
S'ACCTCCTTT'
p1668
sS'Methylibium petroleiphilum PM1'
p1669
S'ACCTCCTTT'
p1670
sS'Polynucleobacter necessarius subsp. asymbioticus QLW-P1DMWA-1'
p1671
S'AGTCGTAAC'
p1672
sS'Alkalilimnicola ehrlichii MLHE-1'
p1673
S'ACCTCCTTT'
p1674
sS'Burkholderia pseudomallei 1710b'
p1675
S'ACCTCCTTT'
p1676
sS'Lactobacillus crispatus ST1'
p1677
S'TCCAGAGCA'
p1678
sS'Chromohalobacter salexigens DSM 3043'
p1679
S'ACCTCCTTA'
p1680
sS'Thermosphaera aggregans DSM 11486'
p1681
S'ACCTCCTGC'
p1682
sS'Bordetella petrii DSM 12804'
p1683
S'ACCTCCTTT'
p1684
sS'Exiguobacterium sp. AT1b'
p1685
S'ACCTCCTTT'
p1686
sS'Coxiella burnetii CbuK_Q154'
p1687
S'ACCTCCTTA'
p1688
sS'Burkholderia vietnamiensis G4'
p1689
S'AGTCGTAAC'
p1690
sS'Burkholderia glumae BGR1'
p1691
S'CAGAAAACC'
p1692
sS'Cyanothece sp. PCC 8801'
p1693
S'ACCTCCTTT'
p1694
sS'Pseudomonas entomophila L48'
p1695
S'ACCTCCTTA'
p1696
sS'Cyanothece sp. PCC 8802'
p1697
S'ACCTCCTTT'
p1698
sS'Kocuria rhizophila DC2201'
p1699
S'ACCTCCTTT'
p1700
sS'Salinispora arenicola CNS-205'
p1701
S'ACCTCCTTT'
p1702
sS'Helicobacter pylori HPAG1'
p1703
S'ACCTCCTTT'
p1704
sS'Fibrobacter succinogenes subsp. succinogenes S85'
p1705
S'ACCTCCTTT'
p1706
sS'Thermanaerovibrio acidaminovorans DSM 6589'
p1707
S'ACCTCCTTT'
p1708
sS'Coxiella burnetii RSA 493'
p1709
S'ACCTCCTTA'
p1710
sS'Thermosynechococcus elongatus BP-1'
p1711
S'ACCTCCTTT'
p1712
sS'Rhodobacter sphaeroides 2.4.1'
p1713
S'ACCTCCTTT'
p1714
sS'Staphylococcus aureus subsp. aureus USA300_TCH1516'
p1715
S'ACCTCCTTT'
p1716
sS'Trichodesmium erythraeum IMS101'
p1717
S'ACCTCCTTT'
p1718
sS'Acidaminococcus fermentans DSM 20731'
p1719
S'ACCTCCTTT'
p1720
sS'Nitrosomonas europaea ATCC 19718'
p1721
S'ACCTCCTTT'
p1722
sS'Candidatus Methanoregula boonei 6A8'
p1723
S'ACCTCCTAA'
p1724
sS'Listeria monocytogenes 08-5578'
p1725
S'ACCTCCTTT'
p1726
sS'Chlorobium tepidum TLS'
p1727
S'ACTGGTAAC'
p1728
sS'Salmonella enterica subsp. enterica serovar Paratyphi A str. AKU_12601'
p1729
S'ACCTCCTTA'
p1730
sS'Sphingomonas wittichii RW1'
p1731
S'ACCTCCTTT'
p1732
sS'Pseudomonas fluorescens Pf0-1'
p1733
S'ACCTCCTTA'
p1734
sS'Brachyspira murdochii DSM 12563'
p1735
S'ACCTCCTTT'
p1736
sS'Sulfurihydrogenibium azorense Az-Fu1'
p1737
S'TACTGGGCG'
p1738
sS'Bacillus cereus G9842'
p1739
S'ACCTCCTTT'
p1740
sS'Ochrobactrum anthropi ATCC 49188'
p1741
S'ACCTCCTTT'
p1742
sS'Thermofilum pendens Hrk 5'
p1743
S'ACCTCCTTT'
p1744
sS'Nitrobacter hamburgensis X14'
p1745
S'ACCTCCTTT'
p1746
sS'Lactobacillus salivarius UCC118'
p1747
S'ACCTCCTTT'
p1748
sS'Clostridium botulinum A3 str. Loch Maree'
p1749
S'ACCTCCTTT'
p1750
sS'Pyrobaculum calidifontis JCM 11548'
p1751
S'ACCTCCACC'
p1752
sS'Citrobacter koseri ATCC BAA-895'
p1753
S'ACCTCCTTA'
p1754
sS'Listeria welshimeri serovar 6b str. SLCC5334'
p1755
S'ACCTCCTTT'
p1756
sS'Clostridium botulinum A str. Hall'
p1757
S'ACCTCCTTT'
p1758
sS'Candidatus Phytoplasma mali'
p1759
S'ACCTCCTTT'
p1760
sS'Bacillus thuringiensis serovar konkukian str. 97-27'
p1761
S'ACCTCCTTT'
p1762
sS'Streptococcus pneumoniae Hungary19A-6'
p1763
S'ACCTCCTTT'
p1764
sS'Lactobacillus gasseri ATCC 33323'
p1765
S'ACCTCCTTT'
p1766
sS'Chromobacterium violaceum ATCC 12472'
p1767
S'ACCTCCTTT'
p1768
sS'Serratia proteamaculans 568'
p1769
S'ACCTCCTTA'
p1770
sS'Klebsiella pneumoniae NTUH-K2044'
p1771
S'ACCTCCTTA'
p1772
sS'Streptococcus thermophilus LMG 18311'
p1773
S'ACCTCCTTT'
p1774
sS'Thermoanaerobacter italicus Ab9'
p1775
S'ACCTCCTTT'
p1776
sS'Pediococcus pentosaceus ATCC 25745'
p1777
S'ACCTCCTTT'
p1778
sS'Thermococcus onnurineus NA1'
p1779
S'ACCTCCTAT'
p1780
sS'Bacillus cereus ATCC 10987'
p1781
S'ACCTCCTTT'
p1782
sS'Shewanella baltica OS155'
p1783
S'ACCTCCTTA'
p1784
sS'Prochlorococcus marinus str. MIT 9303'
p1785
S'ACCTCCTAA'
p1786
sS'Magnetococcus sp. MC-1'
p1787
S'ACCTCCTTT'
p1788
sS'Prochlorococcus marinus str. MIT 9301'
p1789
S'ACCTCCTAA'
p1790
sS'Bacillus anthracis str. Ames'
p1791
S'ACCTCCTTT'
p1792
sS'Erwinia amylovora CFBP1430'
p1793
S'ACCTCCTTA'
p1794
sS'Geobacter bemidjiensis Bem'
p1795
S'ACCTCCTTT'
p1796
sS"Leptospira biflexa serovar Patoc strain 'Patoc 1 (Paris)'"
p1797
S'ACCTCCTTT'
p1798
sS'Marinobacter aquaeolei VT8'
p1799
S'ACCTCCTTA'
p1800
sS'Anabaena variabilis ATCC 29413'
p1801
S'ACCTCCTTT'
p1802
sS'Clostridium phytofermentans ISDg'
p1803
S'ACCTCCTTT'
p1804
sS'Rubrobacter xylanophilus DSM 9941'
p1805
S'ACCTCCTTT'
p1806
sS'Staphylococcus aureus RF122'
p1807
S'ACCTCCTTT'
p1808
sS'Mycoplasma gallisepticum str. R(low)'
p1809
S'ACCTCCTTT'
p1810
sS'Geobacillus sp. Y412MC61'
p1811
S'ACCTCCTTT'
p1812
sS'Vibrio harveyi ATCC BAA-1116'
p1813
S'ACCTCCTTA'
p1814
sS'Pseudomonas aeruginosa LESB58'
p1815
S'ACCTCCTTA'
p1816
sS'Clostridium kluyveri NBRC 12016'
p1817
S'ACCTCCTTT'
p1818
sS'Sphingobium japonicum UT26S'
p1819
S'ACCTCCTTT'
p1820
sS'Mycoplasma capricolum subsp. capricolum ATCC 27343'
p1821
S'ACCTCCTTT'
p1822
sS'Bacillus cereus Q1'
p1823
S'ACCTCCTTT'
p1824
sS'Dehalococcoides sp. VS'
p1825
S'ACCTCCTTT'
p1826
sS'Candidatus Sulcia muelleri DMIN'
p1827
S'ATTTCTGTT'
p1828
sS'Xanthomonas oryzae pv. oryzae KACC10331'
p1829
S'ACCTCCTTT'
p1830
sS'Haloterrigena turkmenica DSM 5511'
p1831
S'ACCTCCACA'
p1832
sS'Parabacteroides distasonis ATCC 8503'
p1833
S'ACCTCCTTT'
p1834
sS'Thermosipho africanus TCF52B'
p1835
S'CCACCCGAG'
p1836
sS'Deinococcus deserti VCD115'
p1837
S'ACCTCCTTT'
p1838
sS'Chlorobium luteolum DSM 273'
p1839
S'ACCTCCTTT'
p1840
sS'Helicobacter pylori 26695'
p1841
S'ACCTCCTTT'
p1842
sS'Kineococcus radiotolerans SRS30216'
p1843
S'ACCTCCTTT'
p1844
sS'Gloeobacter violaceus PCC 7421'
p1845
S'ACCTCCTTT'
p1846
sS'Staphylococcus haemolyticus JCSC1435'
p1847
S'ACCTCCTTT'
p1848
sS'Actinobacillus pleuropneumoniae serovar 7 str. AP76'
p1849
S'ACCTCCTTA'
p1850
sS'Sanguibacter keddieii DSM 10542'
p1851
S'ACCTCCTTT'
p1852
sS'Petrotoga mobilis SJ95'
p1853
S'ACCTCCTTT'
p1854
sS'Vibrio cholerae MJ-1236'
p1855
S'ACCTCCTTA'
p1856
sS'Lactobacillus reuteri DSM 20016'
p1857
S'ACCTCCTTT'
p1858
sS'Clostridium botulinum A2 str. Kyoto'
p1859
S'ACCTCCTTT'
p1860
sS'Sulfolobus islandicus L.S.2.15'
p1861
S'ACCTCATAG'
p1862
sS'Aggregatibacter aphrophilus NJ8700'
p1863
S'ACCTCCTTA'
p1864
sS'Rickettsia canadensis str. McKiel'
p1865
S'ACCTCCTTA'
p1866
sS'Brucella melitensis ATCC 23457'
p1867
S'ACCTCCTTT'
p1868
sS'Thermotoga naphthophila RKU-10'
p1869
S'ACCTCCTTT'
p1870
sS'Streptomyces griseus subsp. griseus NBRC 13350'
p1871
S'ACCTCCTTT'
p1872
sS'Rhodopseudomonas palustris BisB5'
p1873
S'ACCTCCTTT'
p1874
sS'Geobacter sp. FRC-32'
p1875
S'ACCTCCTTT'
p1876
sS"'Nostoc azollae' 0708"
p1877
S'ACCTCCTTT'
p1878
sS'Clostridium botulinum A str. ATCC 3502'
p1879
S'ACCTCCTTT'
p1880
sS'Ralstonia solanacearum GMI1000'
p1881
S'ACCTCCTTT'
p1882
sS'Nitratiruptor sp. SB155-2'
p1883
S'GCCAGTGAG'
p1884
sS'Thermococcus kodakarensis KOD1'
p1885
S'ACCTCCTAT'
p1886
sS'Leptospira borgpetersenii serovar Hardjo-bovis L550'
p1887
S'ACCTCCTTT'
p1888
sS'Synechococcus sp. CC9902'
p1889
S'ACCTCCTAA'
p1890
sS'Bifidobacterium animalis subsp. lactis AD011'
p1891
S'ACCTCCTTT'
p1892
sS'Edwardsiella tarda EIB202'
p1893
S'ACCTCCTTA'
p1894
sS"Bacillus anthracis str. 'Ames Ancestor'"
p1895
S'ACCTCCTTT'
p1896
sS'Desulfotomaculum reducens MI-1'
p1897
S'ACCTCCTTT'
p1898
sS'Mesorhizobium loti MAFF303099'
p1899
S'ACCTCCTTT'
p1900
sS'Pedobacter heparinus DSM 2366'
p1901
S'ACCTCCTTT'
p1902
sS'Spirosoma linguale DSM 74'
p1903
S'ACCTCCTTT'
p1904
sS'Rhizobium leguminosarum bv. trifolii WSM2304'
p1905
S'ACCTCCTTT'
p1906
sS'Buchnera aphidicola str. APS (Acyrthosiphon pisum)'
p1907
S'ACCTCCTTA'
p1908
sS'Staphylococcus aureus subsp. aureus ED98'
p1909
S'ACCTCCTTT'
p1910
sS'Chlamydia trachomatis 434/Bu'
p1911
S'ACCTCCTTT'
p1912
sS'Salinibacter ruber DSM 13855'
p1913
S'TGCGGCTGG'
p1914
sS'Anaeromyxobacter sp. K'
p1915
S'ACCTCCTTT'
p1916
sS'Haemophilus influenzae PittEE'
p1917
S'AGTCGTAAC'
p1918
sS'Azospirillum sp. B510'
p1919
S'ACCTCCTTT'
p1920
sS'Lactococcus lactis subsp. cremoris SK11'
p1921
S'ACCTCCTTT'
p1922
sS'Alkaliphilus oremlandii OhILAs'
p1923
S'ACCTCCTTT'
p1924
sS'Lactobacillus johnsonii NCC 533'
p1925
S'ACCTCCTTT'
p1926
sS'Bacillus subtilis subsp. subtilis str. 168'
p1927
S'ACCTCCTTT'
p1928
sS'Desulfitobacterium hafniense DCB-2'
p1929
S'ACCTCCTTT'
p1930
sS'Rhodococcus jostii RHA1'
p1931
S'ACCTCCTTT'
p1932
sS'Parvibaculum lavamentivorans DS-1'
p1933
S'ACCTCCTTT'
p1934
sS'Bartonella bacilliformis KC583'
p1935
S'ACCTCCTTT'
p1936
sS'Thermobifida fusca YX'
p1937
S'GAAGGTGGG'
p1938
sS'Pectobacterium carotovorum subsp. carotovorum PC1'
p1939
S'ACCTCCTTA'
p1940
sS'Coraliomargarita akajimensis DSM 45221'
p1941
S'ACCTCCTTT'
p1942
sS"Leptospira biflexa serovar Patoc strain 'Patoc 1 (Ames)'"
p1943
S'ACCTCCTTT'
p1944
sS'Burkholderia cenocepacia HI2424'
p1945
S'AGTCGTAAC'
p1946
sS'Halobacterium salinarum R1'
p1947
S'ACCTCCTAA'
p1948
sS'Candidatus Sulcia muelleri GWSS'
p1949
S'ATTTCTGTT'
p1950
sS'Burkholderia ambifaria AMMD'
p1951
S'AGTCGTAAC'
p1952
sS'Azorhizobium caulinodans ORS 571'
p1953
S'ACCTCCTTT'
p1954
sS'Bifidobacterium longum NCC2705'
p1955
S'ACCTCCTTT'
p1956
sS'Brucella ovis ATCC 25840'
p1957
S'ACCTCCTTT'
p1958
sS'Bordetella pertussis Tohama I'
p1959
S'ACCTCCTTT'
p1960
sS'Marinomonas sp. MWYL1'
p1961
S'ACCTCCTTA'
p1962
sS'Renibacterium salmoninarum ATCC 33209'
p1963
S'ACCTCCTTT'
p1964
sS'Thermoanaerobacter pseudethanolicus ATCC 33223'
p1965
S'ACCTCCTTT'
p1966
sS'Fervidobacterium nodosum Rt17-B1'
p1967
S'ACCTCCTTT'
p1968
sS'Dickeya dadantii Ech703'
p1969
S'TAACCGTAG'
p1970
sS'Arcobacter butzleri RM4018'
p1971
S'ACCTCCTTT'
p1972
sS'Saccharophagus degradans 2-40'
p1973
S'ACCTCCTTA'
p1974
sS'Erwinia tasmaniensis Et1/99'
p1975
S'ACCTCCTTA'
p1976
sS'Acidithiobacillus ferrooxidans ATCC 23270'
p1977
S'GTATGGTTC'
p1978
sS'Streptococcus uberis 0140J'
p1979
S'ACCTCCTTT'
p1980
sS'Mycoplasma pulmonis UAB CTIP'
p1981
S'ACCTCCTTT'
p1982
sS'Roseiflexus sp. RS-1'
p1983
S'ACCTCCTTT'
p1984
sS'Methanobrevibacter smithii ATCC 35061'
p1985
S'ACCTCCTTA'
p1986
sS'Vibrio splendidus LGP32'
p1987
S'ACCTCCTTA'
p1988
sS'Thermomonospora curvata DSM 43183'
p1989
S'ACCTCCTTT'
p1990
sS'Robiginitalea biformata HTCC2501'
p1991
S'ACCTCCTTT'
p1992
sS'Blattabacterium sp. (Periplaneta americana) str. BPLAN'
p1993
S'ATCTCTTTT'
p1994
sS'Burkholderia pseudomallei 668'
p1995
S'ACCTCCTTT'
p1996
sS'Methanosarcina acetivorans C2A'
p1997
S'CTGAATTTT'
p1998
sS'Xylanimonas cellulosilytica DSM 15894'
p1999
S'ACCTCCTTT'
p2000
sS'Clavibacter michiganensis subsp. sepedonicus'
p2001
S'ACCTCCTTT'
p2002
sS'Archaeoglobus fulgidus DSM 4304'
p2003
S'ACCTCCTAA'
p2004
sS'Anaerocellum thermophilum DSM 6725'
p2005
S'ACCTCCTTT'
p2006
sS'Candidatus Solibacter usitatus Ellin6076'
p2007
S'ACCTCCTTT'
p2008
sS'Mycoplasma hyopneumoniae J'
p2009
S'ACCTCCTTT'
p2010
sS'Leuconostoc mesenteroides subsp. mesenteroides ATCC 8293'
p2011
S'ACCTCCTTT'
p2012
sS'Slackia heliotrinireducens DSM 20476'
p2013
S'ACCTCCTTT'
p2014
sS'Brucella microti CCM 4915'
p2015
S'ACCTCCTTT'
p2016
sS'Vibrio vulnificus YJ016'
p2017
S'ACCTCCTTA'
p2018
sS'Methanocorpusculum labreanum Z'
p2019
S'ACCTCCTAA'
p2020
sS'Pseudomonas putida GB-1'
p2021
S'ACCTCCTTA'
p2022
sS'Synechococcus sp. WH 7803'
p2023
S'ACCTCCTAA'
p2024
sS'Shewanella piezotolerans WP3'
p2025
S'ACCTCCTTA'
p2026
sS'Escherichia coli UTI89'
p2027
S'ACCTCCTTA'
p2028
sS'Bacillus anthracis str. Sterne'
p2029
S'ACCTCCTTT'
p2030
sS'Lactococcus lactis subsp. cremoris MG1363'
p2031
S'ACCTCCTTT'
p2032
sS'Verminephrobacter eiseniae EF01-2'
p2033
S'AGTCGTAAC'
p2034
sS'Methylobacterium populi BJ001'
p2035
S'ACCTCCTTT'
p2036
sS'Rothia mucilaginosa DY-18'
p2037
S'ACCTCCTTT'
p2038
sS'Methylobacterium extorquens AM1'
p2039
S'ACCTCCTTT'
p2040
sS'Photobacterium profundum SS9'
p2041
S'ACCTCCTTA'
p2042
sS'Escherichia coli ATCC 8739'
p2043
S'ACCTCCTTA'
p2044
sS'Escherichia coli 536'
p2045
S'ACCTCCTTA'
p2046
sS'Pasteurella multocida subsp. multocida str. Pm70'
p2047
S'ACCTCCTTA'
p2048
sS'Rickettsia typhi str. Wilmington'
p2049
S'ACCTCCTTA'
p2050
sS'Sebaldella termitidis ATCC 33386'
p2051
S'ACCTCCTTT'
p2052
sS'Polynucleobacter necessarius subsp. necessarius STIR1'
p2053
S'ACCTCCTTT'
p2054
sS'Aciduliprofundum boonei T469'
p2055
S'ACCTCCTAA'
p2056
sS'Corynebacterium urealyticum DSM 7109'
p2057
S'ACCTCCTTT'
p2058
sS'Pectobacterium atrosepticum SCRI1043'
p2059
S'ACCTCCTTA'
p2060
sS'Candidatus Liberibacter asiaticus str. psy62'
p2061
S'ACCTCCTTT'
p2062
sS'Salmonella enterica subsp. enterica serovar Typhimurium str. LT2'
p2063
S'ACCTCCTTA'
p2064
sS'Delftia acidovorans SPH-1'
p2065
S'ACCTCCTTT'
p2066
sS'Desulfovibrio magneticus RS-1'
p2067
S'ACCTCCTTT'
p2068
sS'Methanococcus aeolicus Nankai-3'
p2069
S'ACCTCCTAA'
p2070
sS'Bartonella tribocorum CIP 105476'
p2071
S'ACCTCCTTT'
p2072
sS'Gluconobacter oxydans 621H'
p2073
S'ACCTCCTTT'
p2074
sS'Francisella tularensis subsp. holarctica OSU18'
p2075
S'ACCTCCTTA'
p2076
sS'Enterococcus faecalis V583'
p2077
S'ACCTCCTTT'
p2078
sS'Escherichia coli O157:H7 str. TW14359'
p2079
S'ACCTCCTTA'
p2080
sS'Leptotrichia buccalis C-1013-b'
p2081
S'ACCTCCTTT'
p2082
sS'Francisella tularensis subsp. tularensis SCHU S4'
p2083
S'ACCTCCTTA'
p2084
sS'Planctomyces limnophilus DSM 3776'
p2085
S'ACCTCCTTT'
p2086
sS'Halobacterium sp. NRC-1'
p2087
S'ACCTCCTAA'
p2088
sS'Mycoplasma mycoides subsp. mycoides SC str. PG1'
p2089
S'ACCTCCTTT'
p2090
sS'Streptococcus equi subsp. zooepidemicus MGCS10565'
p2091
S'AAGGTGGGA'
p2092
sS'Nostoc punctiforme PCC 73102'
p2093
S'ATATCGAAA'
p2094
sS'Ehrlichia chaffeensis str. Arkansas'
p2095
S'ACCTCCTTT'
p2096
sS'Salmonella enterica subsp. enterica serovar Enteritidis str. P125109'
p2097
S'ACCTCCTTA'
p2098
sS'Thermotoga neapolitana DSM 4359'
p2099
S'ACCTCCTTT'
p2100
sS'Vibrio cholerae O395'
p2101
S'ACCTCCTTA'
p2102
sS'Synechococcus elongatus PCC 7942'
p2103
S'ACCTCCTTT'
p2104
sS'Chlorobium phaeovibrioides DSM 265'
p2105
S'ACCTCCTTT'
p2106
sS'Burkholderia pseudomallei 1106a'
p2107
S'ACCTCCTTT'
p2108
sS'Borrelia duttonii Ly'
p2109
S'ACCTCCTTT'
p2110
sS'Streptococcus pyogenes MGAS10750'
p2111
S'TATATAATA'
p2112
sS'Clostridium difficile CD196'
p2113
S'ACCTCCTTT'
p2114
sS'Truepera radiovictrix DSM 17093'
p2115
S'ACCTCCTTT'
p2116
sS'Prochlorococcus marinus str. AS9601'
p2117
S'ACCTCCTAA'
p2118
sS'Escherichia coli B str. REL606'
p2119
S'ACCTCCTTA'
p2120
sS'Pseudomonas aeruginosa PA7'
p2121
S'ACCTCCTTA'
p2122
sS'Rickettsia africae ESF-5'
p2123
S'ACCTCCTTA'
p2124
sS'Mycoplasma pneumoniae M129'
p2125
S'ACCTCCTTT'
p2126
sS'Pyrobaculum islandicum DSM 4184'
p2127
S'ACCTCCACC'
p2128
sS'Ralstonia pickettii 12D'
p2129
S'ACCTCCTTT'
p2130
sS'Ralstonia pickettii 12J'
p2131
S'ACCTCCTTT'
p2132
sS'Dyadobacter fermentans DSM 18053'
p2133
S'ACCTCCTTT'
p2134
sS'Desulfovibrio vulgaris str. Hildenborough'
p2135
S'ACCTCCTTT'
p2136
sS'Ehrlichia ruminantium str. Welgevonden'
p2137
S'ACCTCCTTT'
p2138
sS'Staphylococcus aureus subsp. aureus COL'
p2139
S'ACCTCCTTT'
p2140
sS'Brucella suis 1330'
p2141
S'ACCTCCTTT'
p2142
sS'Burkholderia phymatum STM815'
p2143
S'ACCTCCTTT'
p2144
sS'Atopobium parvulum DSM 20469'
p2145
S'ACCTCCTTT'
p2146
sS'Clostridium thermocellum ATCC 27405'
p2147
S'ACCTCCTTT'
p2148
sS'Prochlorococcus marinus str. MIT 9515'
p2149
S'ACCTCCTAA'
p2150
sS'Francisella tularensis subsp. holarctica'
p2151
S'ACCTCCTTA'
p2152
sS'Helicobacter pylori G27'
p2153
S'ACCTCCTTT'
p2154
sS'Escherichia coli 55989'
p2155
S'ACCTCCTTA'
p2156
sS'Treponema denticola ATCC 35405'
p2157
S'ACCTCCTTT'
p2158
sS'Streptococcus suis SC84'
p2159
S'ACCTCCTTT'
p2160
sS'Helicobacter pylori B38'
p2161
S'ACCTCCTTT'
p2162
sS'Cupriavidus taiwanensis'
p2163
S'CTGAGCCAG'
p2164
sS'Streptococcus equi subsp. zooepidemicus'
p2165
S'ACCTCCTTT'
p2166
sS'Chloroherpeton thalassium ATCC 35110'
p2167
S'ACCTCCTTT'
p2168
sS'Picrophilus torridus DSM 9790'
p2169
S'ACCTCCTAC'
p2170
sS'Acidothermus cellulolyticus 11B'
p2171
S'ACCTCCTTT'
p2172
s.